

Microchip Technology PIC18 LITE Macro Assembler V1.35 build -356382666 
                                                                                               Mon Nov 30 16:41:41 2015

Microchip Technology Omniscient Code Generator v1.35 (Free mode) build 201507080246
     1                           	processor	18F26K80
     2                           	fnconf	rparam,??,?,0
     3                           	opt	pw 120
     4                           	opt	lm
     5                           	psect	idataCOMRAM,global,class=CODE,delta=1
     6                           	psect	nvCOMRAM,global,class=COMRAM,space=1,delta=1
     7                           	psect	cinit,global,reloc=2,class=CODE,delta=1
     8                           	psect	bssCOMRAM,global,class=COMRAM,space=1,delta=1
     9                           	psect	dataCOMRAM,global,class=COMRAM,space=1,delta=1
    10                           	psect	cstackCOMRAM,global,class=COMRAM,space=1,delta=1
    11                           	psect	text0,global,reloc=2,class=CODE,delta=1
    12                           	psect	text1,global,reloc=2,class=CODE,delta=1
    13                           	psect	text2,global,reloc=2,class=CODE,delta=1
    14                           	psect	text3,global,reloc=2,class=CODE,delta=1
    15                           	psect	text4,global,reloc=2,class=CODE,delta=1
    16                           	psect	text5,global,reloc=2,class=CODE,delta=1
    17                           	psect	text6,global,reloc=2,class=CODE,delta=1
    18                           	psect	text7,global,reloc=2,class=CODE,delta=1
    19                           	psect	intcode,global,reloc=2,class=CODE,delta=1
    20                           	psect	text9,global,reloc=2,class=CODE,delta=1
    21                           	psect	intsave_regs,global,class=BIGRAM,space=1,delta=1
    22                           	psect	rparam,global,class=COMRAM,space=1,delta=1
    23                           	psect	temp,global,ovrld,common,class=COMRAM,space=1,delta=1
    24  0000                     
    25                           	psect	idataCOMRAM
    26  00046E                     __pidataCOMRAM:
    27                           	opt stack 0
    28                           
    29                           ;initializer for _BATTERISTATUS_ID
    30  00046E  02                 	db	2
    31                           
    32                           ;initializer for _MOTOR_ID
    33  00046F  01                 	db	1
    34                           
    35                           	psect	nvCOMRAM
    36  000042                     __pnvCOMRAM:
    37                           	opt stack 0
    38  000042                     _count:
    39                           	opt stack 0
    40  000042                     	ds	1
    41  0000                     _B0CONbits	set	3712
    42  0000                     _B0D0	set	3718
    43  0000                     _B0D1	set	3719
    44  0000                     _B0D2	set	3720
    45  0000                     _B0D3	set	3721
    46  0000                     _B0D4	set	3722
    47  0000                     _B0D5	set	3723
    48  0000                     _B0D6	set	3724
    49  0000                     _B0D7	set	3725
    50  0000                     _B0DLC	set	3717
    51  0000                     _B0EIDH	set	3715
    52  0000                     _B0EIDL	set	3716
    53  0000                     _B0SIDH	set	3713
    54  0000                     _B0SIDL	set	3714
    55  0000                     _BRGCON1	set	3651
    56  0000                     _BRGCON2	set	3652
    57  0000                     _BRGCON3	set	3653
    58  0000                     _BSEL0	set	3709
    59  0000                     _MSEL0	set	3705
    60  0000                     _MSEL1	set	3706
    61  0000                     _MSEL2	set	3707
    62  0000                     _MSEL3	set	3708
    63  0000                     _RXF0EIDH	set	3810
    64  0000                     _RXF0EIDL	set	3811
    65  0000                     _RXF0SIDH	set	3808
    66  0000                     _RXF0SIDL	set	3809
    67  0000                     _RXF1EIDH	set	3814
    68  0000                     _RXF1EIDL	set	3815
    69  0000                     _RXF1SIDH	set	3812
    70  0000                     _RXF1SIDL	set	3813
    71  0000                     _RXF2EIDH	set	3818
    72  0000                     _RXF2EIDL	set	3819
    73  0000                     _RXF2SIDH	set	3816
    74  0000                     _RXF2SIDL	set	3817
    75  0000                     _RXFBCON0	set	3697
    76  0000                     _RXFBCON1	set	3698
    77  0000                     _RXFBCON2	set	3699
    78  0000                     _RXFBCON3	set	3700
    79  0000                     _RXFBCON4	set	3701
    80  0000                     _RXFBCON5	set	3702
    81  0000                     _RXFBCON6	set	3703
    82  0000                     _RXFBCON7	set	3704
    83  0000                     _RXFCON0	set	3654
    84  0000                     _RXFCON1	set	3655
    85  0000                     _RXM0EIDH	set	3834
    86  0000                     _RXM0EIDL	set	3835
    87  0000                     _RXM0SIDH	set	3832
    88  0000                     _RXM0SIDL	set	3833
    89  0000                     _RXM1EIDH	set	3838
    90  0000                     _RXM1EIDL	set	3839
    91  0000                     _RXM1SIDH	set	3836
    92  0000                     _RXM1SIDL	set	3837
    93  0000                     _ANCON0	set	3933
    94  0000                     _ANCON1	set	3932
    95  0000                     _RXB1CON	set	3888
    96  0000                     _RXB1CONbits	set	3888
    97  0000                     _RXB1D0	set	3894
    98  0000                     _RXB1D1	set	3895
    99  0000                     _RXB1D2	set	3896
   100  0000                     _RXB1D3	set	3897
   101  0000                     _RXB1D4	set	3898
   102  0000                     _RXB1D5	set	3899
   103  0000                     _RXB1D6	set	3900
   104  0000                     _RXB1D7	set	3901
   105  0000                     _RXB1DLC	set	3893
   106  0000                     _RXB1EIDH	set	3891
   107  0000                     _RXB1EIDL	set	3892
   108  0000                     _RXB1SIDH	set	3889
   109  0000                     _RXB1SIDL	set	3890
   110  0000                     _TXB0CONbits	set	3872
   111  0000                     _TXB0D0	set	3878
   112  0000                     _TXB0D1	set	3879
   113  0000                     _TXB0D2	set	3880
   114  0000                     _TXB0D3	set	3881
   115  0000                     _TXB0D4	set	3882
   116  0000                     _TXB0D5	set	3883
   117  0000                     _TXB0D6	set	3884
   118  0000                     _TXB0D7	set	3885
   119  0000                     _TXB0DLC	set	3877
   120  0000                     _TXB0EIDH	set	3875
   121  0000                     _TXB0EIDL	set	3876
   122  0000                     _TXB0SIDH	set	3873
   123  0000                     _TXB0SIDL	set	3874
   124  0000                     _CANCON	set	3951
   125  0000                     _CANSTATbits	set	3950
   126  0000                     _ECANCON	set	3954
   127  0000                     _INTCONbits	set	4082
   128  0000                     _LATAbits	set	3977
   129  0000                     _LATCbits	set	3979
   130  0000                     _OSCCON	set	4051
   131  0000                     _OSCCONbits	set	4051
   132  0000                     _OSCTUNEbits	set	3995
   133  0000                     _PIE1bits	set	3997
   134  0000                     _PIR1bits	set	3998
   135  0000                     _PIR5bits	set	3959
   136  0000                     _RXB0CON	set	3936
   137  0000                     _RXB0CONbits	set	3936
   138  0000                     _RXB0D0	set	3942
   139  0000                     _RXB0D1	set	3943
   140  0000                     _RXB0D2	set	3944
   141  0000                     _RXB0D3	set	3945
   142  0000                     _RXB0D4	set	3946
   143  0000                     _RXB0D5	set	3947
   144  0000                     _RXB0D6	set	3948
   145  0000                     _RXB0D7	set	3949
   146  0000                     _RXB0DLC	set	3941
   147  0000                     _RXB0EIDH	set	3939
   148  0000                     _RXB0EIDL	set	3940
   149  0000                     _RXB0SIDH	set	3937
   150  0000                     _RXB0SIDL	set	3938
   151  0000                     _SSPADD	set	4040
   152  0000                     _SSPBUF	set	4041
   153  0000                     _SSPCON1	set	4038
   154  0000                     _SSPCON1bits	set	4038
   155  0000                     _SSPCON2	set	4037
   156  0000                     _SSPSTAT	set	4039
   157  0000                     _SSPSTATbits	set	4039
   158  0000                     _TRISA	set	3986
   159  0000                     _TRISB	set	3987
   160  0000                     _TRISC	set	3988
   161                           
   162                           ; #config settings
   163  0000                     
   164                           	psect	cinit
   165  000414                     __pcinit:
   166                           	opt stack 0
   167  000414                     start_initialization:
   168                           	opt stack 0
   169  000414                     __initialization:
   170                           	opt stack 0
   171                           
   172                           ; Clear objects allocated to COMRAM (37 bytes)
   173  000414  EE00  F001         	lfsr	0,__pbssCOMRAM
   174  000418  0E25               	movlw	37
   175  00041A                     clear_0:
   176  00041A  6AEE               	clrf	postinc0,c
   177  00041C  06E8               	decf	wreg,f,c
   178  00041E  E1FD               	bnz	clear_0
   179                           
   180                           ; Initialize objects allocated to COMRAM (2 bytes)
   181                           ; load TBLPTR registers with __pidataCOMRAM
   182  000420  0E6E               	movlw	low __pidataCOMRAM
   183  000422  6EF6               	movwf	tblptrl,c
   184  000424  0E04               	movlw	high __pidataCOMRAM
   185  000426  6EF7               	movwf	tblptrh,c
   186  000428  0E00               	movlw	low (__pidataCOMRAM shr (0+16))
   187  00042A  6EF8               	movwf	tblptru,c
   188  00042C  0009               	tblrd		*+	;fetch initializer
   189  00042E  CFF5 F040          	movff	tablat,__pdataCOMRAM
   190  000432  0009               	tblrd		*+	;fetch initializer
   191  000434  CFF5 F041          	movff	tablat,__pdataCOMRAM+1
   192  000438                     end_of_initialization:
   193                           	opt stack 0
   194  000438                     __end_of__initialization:
   195                           	opt stack 0
   196  000438  9043               	bcf	int$flags,0,c	;clear compiler interrupt flag (level 1)
   197  00043A  9243               	bcf	int$flags,1,c	;clear compiler interrupt flag (level 2)
   198  00043C  0100               	movlb	0
   199  00043E  EF89  F001         	goto	_main	;jump to C main() function
   200                           tblptru	equ	0xFF8
   201                           tblptrh	equ	0xFF7
   202                           tblptrl	equ	0xFF6
   203                           tablat	equ	0xFF5
   204                           postinc0	equ	0xFEE
   205                           wreg	equ	0xFE8
   206                           
   207                           	psect	bssCOMRAM
   208  000001                     __pbssCOMRAM:
   209                           	opt stack 0
   210  000001                     _i2c_reg_map:
   211                           	opt stack 0
   212  000001                     	ds	16
   213  000011                     _I2C_FLAG:
   214                           	opt stack 0
   215  000011                     	ds	2
   216  000013                     _heartbeatCount:
   217                           	opt stack 0
   218  000013                     	ds	2
   219  000015                     _RECEIVE_ID:
   220                           	opt stack 0
   221  000015                     	ds	1
   222  000016                     _buttonWasPressed:
   223                           	opt stack 0
   224  000016                     	ds	1
   225  000017                     _i2c_byte_count:
   226                           	opt stack 0
   227  000017                     	ds	1
   228  000018                     _i2c_reg_addr:
   229                           	opt stack 0
   230  000018                     	ds	1
   231  000019                     _temp_D0:
   232                           	opt stack 0
   233  000019                     	ds	1
   234  00001A                     _temp_D1:
   235                           	opt stack 0
   236  00001A                     	ds	1
   237  00001B                     _temp_D2:
   238                           	opt stack 0
   239  00001B                     	ds	1
   240  00001C                     _temp_D3:
   241                           	opt stack 0
   242  00001C                     	ds	1
   243  00001D                     _temp_D4:
   244                           	opt stack 0
   245  00001D                     	ds	1
   246  00001E                     _temp_D5:
   247                           	opt stack 0
   248  00001E                     	ds	1
   249  00001F                     _temp_D6:
   250                           	opt stack 0
   251  00001F                     	ds	1
   252  000020                     _temp_D7:
   253                           	opt stack 0
   254  000020                     	ds	1
   255  000021                     _temp_DLC:
   256                           	opt stack 0
   257  000021                     	ds	1
   258  000022                     _temp_EIDH:
   259                           	opt stack 0
   260  000022                     	ds	1
   261  000023                     _temp_EIDL:
   262                           	opt stack 0
   263  000023                     	ds	1
   264  000024                     _temp_SIDH:
   265                           	opt stack 0
   266  000024                     	ds	1
   267  000025                     _temp_SIDL:
   268                           	opt stack 0
   269  000025                     	ds	1
   270                           tblptru	equ	0xFF8
   271                           tblptrh	equ	0xFF7
   272                           tblptrl	equ	0xFF6
   273                           tablat	equ	0xFF5
   274                           postinc0	equ	0xFEE
   275                           wreg	equ	0xFE8
   276                           
   277                           	psect	dataCOMRAM
   278  000040                     __pdataCOMRAM:
   279                           	opt stack 0
   280  000040                     _BATTERISTATUS_ID:
   281                           	opt stack 0
   282  000040                     	ds	1
   283  000041                     _MOTOR_ID:
   284                           	opt stack 0
   285  000041                     	ds	1
   286                           tblptru	equ	0xFF8
   287                           tblptrh	equ	0xFF7
   288                           tblptrl	equ	0xFF6
   289                           tablat	equ	0xFF5
   290                           postinc0	equ	0xFEE
   291                           wreg	equ	0xFE8
   292                           
   293                           	psect	cstackCOMRAM
   294  000026                     __pcstackCOMRAM:
   295                           	opt stack 0
   296  000026                     checkI2C@sspBuf:
   297                           	opt stack 0
   298                           
   299                           ; 1 bytes @ 0x0
   300  000026                     	ds	1
   301  000027                     ??_ISR:
   302                           
   303                           ; 0 bytes @ 0x1
   304  000027                     	ds	14
   305  000035                     ECAN_Receive@RXMsgFlag:
   306                           	opt stack 0
   307  000035                     ECAN_Transmit@SIDL:
   308                           	opt stack 0
   309  000035                     Delay@count:
   310                           	opt stack 0
   311                           
   312                           ; 2 bytes @ 0xF
   313  000035                     	ds	1
   314  000036                     ECAN_Transmit@DLC:
   315                           	opt stack 0
   316                           
   317                           ; 1 bytes @ 0x10
   318  000036                     	ds	1
   319  000037                     ECAN_Transmit@TRANSMIT_ID:
   320                           	opt stack 0
   321                           
   322                           ; 1 bytes @ 0x11
   323  000037                     	ds	1
   324  000038                     ECAN_Transmit@DATA1:
   325                           	opt stack 0
   326                           
   327                           ; 1 bytes @ 0x12
   328  000038                     	ds	1
   329  000039                     ECAN_Transmit@DATA2:
   330                           	opt stack 0
   331                           
   332                           ; 1 bytes @ 0x13
   333  000039                     	ds	1
   334  00003A                     ECAN_Transmit@DATA3:
   335                           	opt stack 0
   336                           
   337                           ; 1 bytes @ 0x14
   338  00003A                     	ds	1
   339  00003B                     ECAN_Transmit@DATA4:
   340                           	opt stack 0
   341                           
   342                           ; 1 bytes @ 0x15
   343  00003B                     	ds	1
   344  00003C                     ECAN_Transmit@DATA5:
   345                           	opt stack 0
   346                           
   347                           ; 1 bytes @ 0x16
   348  00003C                     	ds	1
   349  00003D                     ECAN_Transmit@DATA6:
   350                           	opt stack 0
   351                           
   352                           ; 1 bytes @ 0x17
   353  00003D                     	ds	1
   354  00003E                     ECAN_Transmit@DATA7:
   355                           	opt stack 0
   356                           
   357                           ; 1 bytes @ 0x18
   358  00003E                     	ds	1
   359  00003F                     ECAN_Transmit@SIDH:
   360                           	opt stack 0
   361                           
   362                           ; 1 bytes @ 0x19
   363  00003F                     	ds	1
   364  000040                     tblptru	equ	0xFF8
   365                           tblptrh	equ	0xFF7
   366                           tblptrl	equ	0xFF6
   367                           tablat	equ	0xFF5
   368                           postinc0	equ	0xFEE
   369                           wreg	equ	0xFE8
   370                           
   371                           ; 0 bytes @ 0x1A
   372 ;;
   373 ;;Main: autosize = 0, tempsize = 0, incstack = 0, save=0
   374 ;;
   375 ;; *************** function _main *****************
   376 ;; Defined at:
   377 ;;		line 15 in file "main.c"
   378 ;; Parameters:    Size  Location     Type
   379 ;;		None
   380 ;; Auto vars:     Size  Location     Type
   381 ;;		None
   382 ;; Return value:  Size  Location     Type
   383 ;;                  2   47[None  ] int 
   384 ;; Registers used:
   385 ;;		wreg, status,2, status,0, cstack
   386 ;; Tracked objects:
   387 ;;		On entry : 0/0
   388 ;;		On exit  : 0/0
   389 ;;		Unchanged: 0/0
   390 ;; Data sizes:     COMRAM   BANK0   BANK1   BANK2   BANK3   BANK4   BANK5   BANK6   BANK7   BANK8   BANK9  BANK10  BANK1
      +1  BANK12  BANK13  BANK14
   391 ;;      Params:         0       0       0       0       0       0       0       0       0       0       0       0       
      +0       0       0       0
   392 ;;      Locals:         0       0       0       0       0       0       0       0       0       0       0       0       
      +0       0       0       0
   393 ;;      Temps:          0       0       0       0       0       0       0       0       0       0       0       0       
      +0       0       0       0
   394 ;;      Totals:         0       0       0       0       0       0       0       0       0       0       0       0       
      +0       0       0       0
   395 ;;Total ram usage:        0 bytes
   396 ;; Hardware stack levels required when called:    4
   397 ;; This function calls:
   398 ;;		_CANSetup
   399 ;;		_Delay
   400 ;;		_ECAN_Transmit
   401 ;;		_I2CSetup
   402 ;;		_InitDevice
   403 ;;		_checkCAN
   404 ;; This function is called by:
   405 ;;		Startup code after reset
   406 ;; This function uses a non-reentrant model
   407 ;;
   408                           
   409                           	psect	text0
   410  000312                     __ptext0:
   411                           	opt stack 0
   412  000312                     _main:
   413                           	opt stack 27
   414                           
   415                           ;main.c: 19: InitDevice();
   416                           
   417                           ;incstack = 0
   418  000312  ECEF  F001         	call	_InitDevice	;wreg free
   419                           
   420                           ;main.c: 20: CANSetup();
   421  000316  EC43  F000         	call	_CANSetup	;wreg free
   422                           
   423                           ;main.c: 21: I2CSetup();
   424  00031A  EC21  F002         	call	_I2CSetup	;wreg free
   425                           
   426                           ;main.c: 23: LATAbits.LA7 = 1;
   427  00031E  8E89               	bsf	3977,7,c	;volatile
   428  000320                     l48:
   429                           
   430                           ;main.c: 28: if(1){
   431  000320  ECD4  F001         	call	_checkCAN	;wreg free
   432                           
   433                           ;main.c: 29: I2C_FLAG = 0;
   434  000324  0E00               	movlw	0
   435  000326  6E12               	movwf	_I2C_FLAG+1,c
   436  000328  0E00               	movlw	0
   437  00032A  6E11               	movwf	_I2C_FLAG,c
   438                           
   439                           ;main.c: 30: ECAN_Transmit(0x32,0xC0, 0x08,
   440                           ;main.c: 31: i2c_reg_map[8],
   441                           ;main.c: 32: i2c_reg_map[9],
   442                           ;main.c: 33: i2c_reg_map[10],
   443                           ;main.c: 34: i2c_reg_map[11],
   444                           ;main.c: 35: i2c_reg_map[12],
   445                           ;main.c: 36: i2c_reg_map[13],
   446                           ;main.c: 37: i2c_reg_map[14],
   447                           ;main.c: 38: i2c_reg_map[15]);
   448  00032C  0EC0               	movlw	192
   449  00032E  6E35               	movwf	ECAN_Transmit@SIDL,c
   450  000330  0E08               	movlw	8
   451  000332  6E36               	movwf	ECAN_Transmit@DLC,c
   452  000334  C009  F037         	movff	_i2c_reg_map+8,ECAN_Transmit@TRANSMIT_ID	;volatile
   453  000338  C00A  F038         	movff	_i2c_reg_map+9,ECAN_Transmit@DATA1	;volatile
   454  00033C  C00B  F039         	movff	_i2c_reg_map+10,ECAN_Transmit@DATA2	;volatile
   455  000340  C00C  F03A         	movff	_i2c_reg_map+11,ECAN_Transmit@DATA3	;volatile
   456  000344  C00D  F03B         	movff	_i2c_reg_map+12,ECAN_Transmit@DATA4	;volatile
   457  000348  C00E  F03C         	movff	_i2c_reg_map+13,ECAN_Transmit@DATA5	;volatile
   458  00034C  C00F  F03D         	movff	_i2c_reg_map+14,ECAN_Transmit@DATA6	;volatile
   459  000350  C010  F03E         	movff	_i2c_reg_map+15,ECAN_Transmit@DATA7	;volatile
   460  000354  0E32               	movlw	50
   461  000356  ECB4  F001         	call	_ECAN_Transmit
   462                           
   463                           ;main.c: 40: }
   464                           ;main.c: 42: Delay(200);
   465  00035A  0E00               	movlw	0
   466  00035C  6E36               	movwf	Delay@count+1,c
   467  00035E  0EC8               	movlw	200
   468  000360  6E35               	movwf	Delay@count,c
   469  000362  EC2E  F002         	call	_Delay	;wreg free
   470  000366  D7DC               	goto	l48
   471  000368                     __end_of_main:
   472                           	opt stack 0
   473                           tblptru	equ	0xFF8
   474                           tblptrh	equ	0xFF7
   475                           tblptrl	equ	0xFF6
   476                           tablat	equ	0xFF5
   477                           postinc0	equ	0xFEE
   478                           wreg	equ	0xFE8
   479                           
   480 ;; *************** function _checkCAN *****************
   481 ;; Defined at:
   482 ;;		line 344 in file "ECAN.c"
   483 ;; Parameters:    Size  Location     Type
   484 ;;		None
   485 ;; Auto vars:     Size  Location     Type
   486 ;;		None
   487 ;; Return value:  Size  Location     Type
   488 ;;		None               void
   489 ;; Registers used:
   490 ;;		wreg, status,2, status,0, cstack
   491 ;; Tracked objects:
   492 ;;		On entry : 0/0
   493 ;;		On exit  : 0/0
   494 ;;		Unchanged: 0/0
   495 ;; Data sizes:     COMRAM   BANK0   BANK1   BANK2   BANK3   BANK4   BANK5   BANK6   BANK7   BANK8   BANK9  BANK10  BANK1
      +1  BANK12  BANK13  BANK14
   496 ;;      Params:         0       0       0       0       0       0       0       0       0       0       0       0       
      +0       0       0       0
   497 ;;      Locals:         0       0       0       0       0       0       0       0       0       0       0       0       
      +0       0       0       0
   498 ;;      Temps:          0       0       0       0       0       0       0       0       0       0       0       0       
      +0       0       0       0
   499 ;;      Totals:         0       0       0       0       0       0       0       0       0       0       0       0       
      +0       0       0       0
   500 ;;Total ram usage:        0 bytes
   501 ;; Hardware stack levels used:    1
   502 ;; Hardware stack levels required when called:    3
   503 ;; This function calls:
   504 ;;		_ECAN_Receive
   505 ;; This function is called by:
   506 ;;		_main
   507 ;; This function uses a non-reentrant model
   508 ;;
   509                           
   510                           	psect	text1
   511  0003A8                     __ptext1:
   512                           	opt stack 0
   513  0003A8                     _checkCAN:
   514                           	opt stack 27
   515                           
   516                           ;ECAN.c: 345: if(ECAN_Receive()){
   517                           
   518                           ;incstack = 0
   519  0003A8  ECD8  F000         	call	_ECAN_Receive	;wreg free
   520  0003AC  0900               	iorlw	0
   521  0003AE  B4D8               	btfsc	status,2,c
   522  0003B0  0012               	return	
   523                           
   524                           ;ECAN.c: 347: i2c_reg_map[0] = RECEIVE_ID;
   525  0003B2  C015  F001         	movff	_RECEIVE_ID,_i2c_reg_map	;volatile
   526                           
   527                           ;ECAN.c: 348: i2c_reg_map[1] = temp_D1;
   528  0003B6  C01A  F002         	movff	_temp_D1,_i2c_reg_map+1	;volatile
   529                           
   530                           ;ECAN.c: 349: i2c_reg_map[2] = temp_D2;
   531  0003BA  C01B  F003         	movff	_temp_D2,_i2c_reg_map+2	;volatile
   532                           
   533                           ;ECAN.c: 350: i2c_reg_map[3] = temp_D3;
   534  0003BE  C01C  F004         	movff	_temp_D3,_i2c_reg_map+3	;volatile
   535                           
   536                           ;ECAN.c: 351: i2c_reg_map[4] = temp_D4;
   537  0003C2  C01D  F005         	movff	_temp_D4,_i2c_reg_map+4	;volatile
   538                           
   539                           ;ECAN.c: 352: i2c_reg_map[5] = temp_D5;
   540  0003C6  C01E  F006         	movff	_temp_D5,_i2c_reg_map+5	;volatile
   541                           
   542                           ;ECAN.c: 353: i2c_reg_map[6] = temp_D6;
   543  0003CA  C01F  F007         	movff	_temp_D6,_i2c_reg_map+6	;volatile
   544                           
   545                           ;ECAN.c: 354: i2c_reg_map[7] = temp_D7;
   546  0003CE  C020  F008         	movff	_temp_D7,_i2c_reg_map+7	;volatile
   547                           
   548                           ;ECAN.c: 356: LATCbits.LATC7 = temp_D1;
   549  0003D2  B01A               	btfsc	_temp_D1,0,c
   550  0003D4  D002               	bra	u185
   551  0003D6  9E8B               	bcf	3979,7,c	;volatile
   552  0003D8  D001               	bra	u186
   553  0003DA                     u185:
   554  0003DA  8E8B               	bsf	3979,7,c	;volatile
   555  0003DC                     u186:
   556  0003DC  0012               	return	
   557  0003DE                     __end_of_checkCAN:
   558                           	opt stack 0
   559                           tblptru	equ	0xFF8
   560                           tblptrh	equ	0xFF7
   561                           tblptrl	equ	0xFF6
   562                           tablat	equ	0xFF5
   563                           postinc0	equ	0xFEE
   564                           wreg	equ	0xFE8
   565                           status	equ	0xFD8
   566                           
   567 ;; *************** function _ECAN_Receive *****************
   568 ;; Defined at:
   569 ;;		line 224 in file "ECAN.c"
   570 ;; Parameters:    Size  Location     Type
   571 ;;		None
   572 ;; Auto vars:     Size  Location     Type
   573 ;;  RXMsgFlag       1   15[COMRAM] unsigned char 
   574 ;; Return value:  Size  Location     Type
   575 ;;                  1    wreg      unsigned char 
   576 ;; Registers used:
   577 ;;		wreg, status,2, status,0
   578 ;; Tracked objects:
   579 ;;		On entry : 0/0
   580 ;;		On exit  : 0/0
   581 ;;		Unchanged: 0/0
   582 ;; Data sizes:     COMRAM   BANK0   BANK1   BANK2   BANK3   BANK4   BANK5   BANK6   BANK7   BANK8   BANK9  BANK10  BANK1
      +1  BANK12  BANK13  BANK14
   583 ;;      Params:         0       0       0       0       0       0       0       0       0       0       0       0       
      +0       0       0       0
   584 ;;      Locals:         1       0       0       0       0       0       0       0       0       0       0       0       
      +0       0       0       0
   585 ;;      Temps:          0       0       0       0       0       0       0       0       0       0       0       0       
      +0       0       0       0
   586 ;;      Totals:         1       0       0       0       0       0       0       0       0       0       0       0       
      +0       0       0       0
   587 ;;Total ram usage:        1 bytes
   588 ;; Hardware stack levels used:    1
   589 ;; Hardware stack levels required when called:    2
   590 ;; This function calls:
   591 ;;		Nothing
   592 ;; This function is called by:
   593 ;;		_checkCAN
   594 ;; This function uses a non-reentrant model
   595 ;;
   596                           
   597                           	psect	text2
   598  0001B0                     __ptext2:
   599                           	opt stack 0
   600  0001B0                     _ECAN_Receive:
   601                           	opt stack 27
   602                           
   603                           ;ECAN.c: 226: unsigned char RXMsgFlag;
   604                           ;ECAN.c: 228: RXMsgFlag = 0x00;
   605                           
   606                           ;incstack = 0
   607  0001B0  0E00               	movlw	0
   608  0001B2  6E35               	movwf	ECAN_Receive@RXMsgFlag,c
   609                           
   610                           ;ECAN.c: 230: if (RXB0CONbits.RXFUL)
   611  0001B4  AE60               	btfss	3936,7,c	;volatile
   612  0001B6  D01C               	goto	l327
   613                           
   614                           ;ECAN.c: 231: {
   615                           ;ECAN.c: 232: temp_EIDH = RXB0EIDH;
   616  0001B8  CF63 F022          	movff	3939,_temp_EIDH	;volatile
   617                           
   618                           ;ECAN.c: 233: temp_EIDL = RXB0EIDL;
   619  0001BC  CF64 F023          	movff	3940,_temp_EIDL	;volatile
   620                           
   621                           ;ECAN.c: 234: temp_SIDH = RXB0SIDH;
   622  0001C0  CF61 F024          	movff	3937,_temp_SIDH	;volatile
   623                           
   624                           ;ECAN.c: 235: temp_SIDL = RXB0SIDL;
   625  0001C4  CF62 F025          	movff	3938,_temp_SIDL	;volatile
   626                           
   627                           ;ECAN.c: 236: temp_DLC = RXB0DLC;
   628  0001C8  CF65 F021          	movff	3941,_temp_DLC	;volatile
   629                           
   630                           ;ECAN.c: 237: RECEIVE_ID = RXB0D0;
   631  0001CC  CF66 F015          	movff	3942,_RECEIVE_ID	;volatile
   632                           
   633                           ;ECAN.c: 238: temp_D1 = RXB0D1;
   634  0001D0  CF67 F01A          	movff	3943,_temp_D1	;volatile
   635                           
   636                           ;ECAN.c: 239: temp_D2 = RXB0D2;
   637  0001D4  CF68 F01B          	movff	3944,_temp_D2	;volatile
   638                           
   639                           ;ECAN.c: 240: temp_D3 = RXB0D3;
   640  0001D8  CF69 F01C          	movff	3945,_temp_D3	;volatile
   641                           
   642                           ;ECAN.c: 241: temp_D4 = RXB0D4;
   643  0001DC  CF6A F01D          	movff	3946,_temp_D4	;volatile
   644                           
   645                           ;ECAN.c: 242: temp_D5 = RXB0D5;
   646  0001E0  CF6B F01E          	movff	3947,_temp_D5	;volatile
   647                           
   648                           ;ECAN.c: 243: temp_D6 = RXB0D6;
   649  0001E4  CF6C F01F          	movff	3948,_temp_D6	;volatile
   650                           
   651                           ;ECAN.c: 244: temp_D7 = RXB0D7;
   652  0001E8  CF6D F020          	movff	3949,_temp_D7	;volatile
   653                           
   654                           ;ECAN.c: 245: RXB0CONbits.RXFUL = 0;
   655  0001EC  9E60               	bcf	3936,7,c	;volatile
   656  0001EE  D03F               	goto	l1052
   657  0001F0                     l327:
   658                           
   659                           ;ECAN.c: 248: else if (RXB1CONbits.RXFUL)
   660  0001F0  010F               	movlb	15	; () banked
   661  0001F2  AF30               	btfss	48,7,b	;volatile
   662  0001F4  D01D               	goto	l329
   663                           
   664                           ; BSR set to: 15
   665                           ;ECAN.c: 249: {
   666                           ;ECAN.c: 250: temp_EIDH = RXB1EIDH;
   667  0001F6  CF33 F022          	movff	3891,_temp_EIDH	;volatile
   668                           
   669                           ;ECAN.c: 251: temp_EIDL = RXB1EIDL;
   670  0001FA  CF34 F023          	movff	3892,_temp_EIDL	;volatile
   671                           
   672                           ;ECAN.c: 252: temp_SIDH = RXB1SIDH;
   673  0001FE  CF31 F024          	movff	3889,_temp_SIDH	;volatile
   674                           
   675                           ;ECAN.c: 253: temp_SIDL = RXB1SIDL;
   676  000202  CF32 F025          	movff	3890,_temp_SIDL	;volatile
   677                           
   678                           ;ECAN.c: 254: temp_DLC = RXB1DLC;
   679  000206  CF35 F021          	movff	3893,_temp_DLC	;volatile
   680                           
   681                           ;ECAN.c: 255: temp_D0 = RXB1D0;
   682  00020A  CF36 F019          	movff	3894,_temp_D0	;volatile
   683                           
   684                           ;ECAN.c: 256: temp_D1 = RXB1D1;
   685  00020E  CF37 F01A          	movff	3895,_temp_D1	;volatile
   686                           
   687                           ;ECAN.c: 257: temp_D2 = RXB1D2;
   688  000212  CF38 F01B          	movff	3896,_temp_D2	;volatile
   689                           
   690                           ;ECAN.c: 258: temp_D3 = RXB1D3;
   691  000216  CF39 F01C          	movff	3897,_temp_D3	;volatile
   692                           
   693                           ;ECAN.c: 259: temp_D4 = RXB1D4;
   694  00021A  CF3A F01D          	movff	3898,_temp_D4	;volatile
   695                           
   696                           ;ECAN.c: 260: temp_D5 = RXB1D5;
   697  00021E  CF3B F01E          	movff	3899,_temp_D5	;volatile
   698                           
   699                           ;ECAN.c: 261: temp_D6 = RXB1D6;
   700  000222  CF3C F01F          	movff	3900,_temp_D6	;volatile
   701                           
   702                           ;ECAN.c: 262: temp_D7 = RXB1D7;
   703  000226  CF3D F020          	movff	3901,_temp_D7	;volatile
   704                           
   705                           ;ECAN.c: 263: RXB1CONbits.RXFUL = 0;
   706  00022A  010F               	movlb	15	; () banked
   707  00022C  9F30               	bcf	48,7,b	;volatile
   708  00022E  D01F               	goto	l1052
   709  000230                     l329:
   710                           
   711                           ; BSR set to: 15
   712                           ;ECAN.c: 266: else if (B0CONbits.RXFUL)
   713  000230  010E               	movlb	14	; () banked
   714  000232  AF80               	btfss	128,7,b	;volatile
   715  000234  D01E               	goto	l1054
   716                           
   717                           ; BSR set to: 14
   718                           ;ECAN.c: 267: {
   719                           ;ECAN.c: 268: temp_EIDH = B0EIDH;
   720  000236  CE83 F022          	movff	3715,_temp_EIDH	;volatile
   721                           
   722                           ;ECAN.c: 269: temp_EIDL = B0EIDL;
   723  00023A  CE84 F023          	movff	3716,_temp_EIDL	;volatile
   724                           
   725                           ;ECAN.c: 270: temp_SIDH = B0SIDH;
   726  00023E  CE81 F024          	movff	3713,_temp_SIDH	;volatile
   727                           
   728                           ;ECAN.c: 271: temp_SIDL = B0SIDL;
   729  000242  CE82 F025          	movff	3714,_temp_SIDL	;volatile
   730                           
   731                           ;ECAN.c: 272: temp_DLC = B0DLC;
   732  000246  CE85 F021          	movff	3717,_temp_DLC	;volatile
   733                           
   734                           ;ECAN.c: 273: temp_D0 = B0D0;
   735  00024A  CE86 F019          	movff	3718,_temp_D0	;volatile
   736                           
   737                           ;ECAN.c: 274: temp_D1 = B0D1;
   738  00024E  CE87 F01A          	movff	3719,_temp_D1	;volatile
   739                           
   740                           ;ECAN.c: 275: temp_D2 = B0D2;
   741  000252  CE88 F01B          	movff	3720,_temp_D2	;volatile
   742                           
   743                           ;ECAN.c: 276: temp_D3 = B0D3;
   744  000256  CE89 F01C          	movff	3721,_temp_D3	;volatile
   745                           
   746                           ;ECAN.c: 277: temp_D4 = B0D4;
   747  00025A  CE8A F01D          	movff	3722,_temp_D4	;volatile
   748                           
   749                           ;ECAN.c: 278: temp_D5 = B0D5;
   750  00025E  CE8B F01E          	movff	3723,_temp_D5	;volatile
   751                           
   752                           ;ECAN.c: 279: temp_D6 = B0D6;
   753  000262  CE8C F01F          	movff	3724,_temp_D6	;volatile
   754                           
   755                           ;ECAN.c: 280: temp_D7 = B0D7;
   756  000266  CE8D F020          	movff	3725,_temp_D7	;volatile
   757                           
   758                           ;ECAN.c: 282: B0CONbits.RXFUL = 0;
   759  00026A  010E               	movlb	14	; () banked
   760  00026C  9F80               	bcf	128,7,b	;volatile
   761  00026E                     l1052:
   762                           
   763                           ; BSR set to: 14
   764                           ;ECAN.c: 283: RXMsgFlag = 0x01;
   765  00026E  0E01               	movlw	1
   766  000270  6E35               	movwf	ECAN_Receive@RXMsgFlag,c
   767  000272                     l1054:
   768                           
   769                           ;ECAN.c: 284: }
   770                           ;ECAN.c: 286: if (RXMsgFlag == 0x01)
   771  000272  0435               	decf	ECAN_Receive@RXMsgFlag,w,c
   772  000274  A4D8               	btfss	status,2,c
   773  000276  D005               	goto	l1066
   774                           
   775                           ;ECAN.c: 287: {
   776                           ;ECAN.c: 288: RXMsgFlag = 0x00;
   777  000278  0E00               	movlw	0
   778  00027A  6E35               	movwf	ECAN_Receive@RXMsgFlag,c
   779                           
   780                           ;ECAN.c: 289: PIR5bits.RXB1IF = 0;
   781  00027C  9277               	bcf	3959,1,c	;volatile
   782                           
   783                           ;ECAN.c: 290: return 1;
   784  00027E  0E01               	movlw	1
   785                           
   786                           ;ECAN.c: 291: }
   787  000280  0012               	return	
   788  000282                     l1066:
   789                           
   790                           ;ECAN.c: 292: else
   791                           ;ECAN.c: 293: {
   792                           ;ECAN.c: 294: return 0;
   793  000282  0E00               	movlw	0
   794  000284  0012               	return	
   795  000286                     __end_of_ECAN_Receive:
   796                           	opt stack 0
   797                           tblptru	equ	0xFF8
   798                           tblptrh	equ	0xFF7
   799                           tblptrl	equ	0xFF6
   800                           tablat	equ	0xFF5
   801                           postinc0	equ	0xFEE
   802                           wreg	equ	0xFE8
   803                           status	equ	0xFD8
   804                           
   805 ;; *************** function _InitDevice *****************
   806 ;; Defined at:
   807 ;;		line 5 in file "Other.c"
   808 ;; Parameters:    Size  Location     Type
   809 ;;		None
   810 ;; Auto vars:     Size  Location     Type
   811 ;;		None
   812 ;; Return value:  Size  Location     Type
   813 ;;		None               void
   814 ;; Registers used:
   815 ;;		wreg, status,2
   816 ;; Tracked objects:
   817 ;;		On entry : 0/0
   818 ;;		On exit  : 0/0
   819 ;;		Unchanged: 0/0
   820 ;; Data sizes:     COMRAM   BANK0   BANK1   BANK2   BANK3   BANK4   BANK5   BANK6   BANK7   BANK8   BANK9  BANK10  BANK1
      +1  BANK12  BANK13  BANK14
   821 ;;      Params:         0       0       0       0       0       0       0       0       0       0       0       0       
      +0       0       0       0
   822 ;;      Locals:         0       0       0       0       0       0       0       0       0       0       0       0       
      +0       0       0       0
   823 ;;      Temps:          0       0       0       0       0       0       0       0       0       0       0       0       
      +0       0       0       0
   824 ;;      Totals:         0       0       0       0       0       0       0       0       0       0       0       0       
      +0       0       0       0
   825 ;;Total ram usage:        0 bytes
   826 ;; Hardware stack levels used:    1
   827 ;; Hardware stack levels required when called:    2
   828 ;; This function calls:
   829 ;;		Nothing
   830 ;; This function is called by:
   831 ;;		_main
   832 ;; This function uses a non-reentrant model
   833 ;;
   834                           
   835                           	psect	text3
   836  0003DE                     __ptext3:
   837                           	opt stack 0
   838  0003DE                     _InitDevice:
   839                           	opt stack 28
   840                           
   841                           ;Other.c: 7: count = 0x01;
   842                           
   843                           ;incstack = 0
   844  0003DE  0E01               	movlw	1
   845  0003E0  6E42               	movwf	_count,c
   846                           
   847                           ;Other.c: 10: OSCCON = 0x60;
   848  0003E2  0E60               	movlw	96
   849  0003E4  6ED3               	movwf	4051,c	;volatile
   850                           
   851                           ;Other.c: 11: OSCCONbits.IRCF = 7;
   852  0003E6  88D3               	bsf	4051,4,c	;volatile
   853  0003E8  8AD3               	bsf	4051,5,c	;volatile
   854  0003EA  8CD3               	bsf	4051,6,c	;volatile
   855                           
   856                           ;Other.c: 12: OSCTUNEbits.PLLEN = 1;
   857  0003EC  8C9B               	bsf	3995,6,c	;volatile
   858                           
   859                           ;Other.c: 15: heartbeatCount = 0;
   860  0003EE  0E00               	movlw	0
   861  0003F0  6E14               	movwf	_heartbeatCount+1,c
   862  0003F2  0E00               	movlw	0
   863  0003F4  6E13               	movwf	_heartbeatCount,c
   864                           
   865                           ;Other.c: 16: buttonWasPressed = 0;
   866  0003F6  0E00               	movlw	0
   867  0003F8  6E16               	movwf	_buttonWasPressed,c
   868                           
   869                           ;Other.c: 19: ANCON0 = ANCON1 = 0x00;
   870  0003FA  0E00               	movlw	0
   871  0003FC  010F               	movlb	15	; () banked
   872  0003FE  6F5C               	movwf	92,b	;volatile
   873  000400  CF5C FF5D          	movff	3932,3933	;volatile
   874                           
   875                           ; BSR set to: 15
   876                           ;Other.c: 20: TRISB = 0xFF;
   877  000404  6893               	setf	3987,c	;volatile
   878                           
   879                           ;Other.c: 23: TRISA = 0b00111111;
   880  000406  0E3F               	movlw	63
   881  000408  6E92               	movwf	3986,c	;volatile
   882                           
   883                           ; BSR set to: 15
   884                           ;Other.c: 24: LATAbits.LATA7 = 0;
   885  00040A  9E89               	bcf	3977,7,c	;volatile
   886                           
   887                           ; BSR set to: 15
   888                           ;Other.c: 25: LATAbits.LATA6 = 0;
   889  00040C  9C89               	bcf	3977,6,c	;volatile
   890                           
   891                           ;Other.c: 28: TRISC = 0b00011000;
   892  00040E  0E18               	movlw	24
   893  000410  6E94               	movwf	3988,c	;volatile
   894                           
   895                           ; BSR set to: 15
   896  000412  0012               	return		;funcret
   897  000414                     __end_of_InitDevice:
   898                           	opt stack 0
   899                           tblptru	equ	0xFF8
   900                           tblptrh	equ	0xFF7
   901                           tblptrl	equ	0xFF6
   902                           tablat	equ	0xFF5
   903                           postinc0	equ	0xFEE
   904                           wreg	equ	0xFE8
   905                           status	equ	0xFD8
   906                           
   907 ;; *************** function _I2CSetup *****************
   908 ;; Defined at:
   909 ;;		line 4 in file "I2C.c"
   910 ;; Parameters:    Size  Location     Type
   911 ;;		None
   912 ;; Auto vars:     Size  Location     Type
   913 ;;		None
   914 ;; Return value:  Size  Location     Type
   915 ;;		None               void
   916 ;; Registers used:
   917 ;;		wreg, status,2
   918 ;; Tracked objects:
   919 ;;		On entry : 0/0
   920 ;;		On exit  : 0/0
   921 ;;		Unchanged: 0/0
   922 ;; Data sizes:     COMRAM   BANK0   BANK1   BANK2   BANK3   BANK4   BANK5   BANK6   BANK7   BANK8   BANK9  BANK10  BANK1
      +1  BANK12  BANK13  BANK14
   923 ;;      Params:         0       0       0       0       0       0       0       0       0       0       0       0       
      +0       0       0       0
   924 ;;      Locals:         0       0       0       0       0       0       0       0       0       0       0       0       
      +0       0       0       0
   925 ;;      Temps:          0       0       0       0       0       0       0       0       0       0       0       0       
      +0       0       0       0
   926 ;;      Totals:         0       0       0       0       0       0       0       0       0       0       0       0       
      +0       0       0       0
   927 ;;Total ram usage:        0 bytes
   928 ;; Hardware stack levels used:    1
   929 ;; Hardware stack levels required when called:    2
   930 ;; This function calls:
   931 ;;		Nothing
   932 ;; This function is called by:
   933 ;;		_main
   934 ;; This function uses a non-reentrant model
   935 ;;
   936                           
   937                           	psect	text4
   938  000442                     __ptext4:
   939                           	opt stack 0
   940  000442                     _I2CSetup:
   941                           	opt stack 28
   942                           
   943                           ;I2C.c: 6: SSPADD = 0x54;
   944                           
   945                           ; BSR set to: 15
   946                           ;incstack = 0
   947  000442  0E54               	movlw	84
   948  000444  6EC8               	movwf	4040,c	;volatile
   949                           
   950                           ;I2C.c: 7: SSPCON1 = 0x36;
   951  000446  0E36               	movlw	54
   952  000448  6EC6               	movwf	4038,c	;volatile
   953                           
   954                           ;I2C.c: 10: SSPSTAT = 0x00;
   955  00044A  0E00               	movlw	0
   956  00044C  6EC7               	movwf	4039,c	;volatile
   957                           
   958                           ;I2C.c: 11: SSPCON2 = 0x01;
   959  00044E  0E01               	movlw	1
   960  000450  6EC5               	movwf	4037,c	;volatile
   961                           
   962                           ;I2C.c: 13: PIR1bits.SSPIF = 0;
   963  000452  969E               	bcf	3998,3,c	;volatile
   964                           
   965                           ;I2C.c: 14: PIE1bits.SSPIE = 1;
   966  000454  869D               	bsf	3997,3,c	;volatile
   967                           
   968                           ;I2C.c: 15: INTCONbits.GIE_GIEH = 1;
   969  000456  8EF2               	bsf	intcon,7,c	;volatile
   970                           
   971                           ;I2C.c: 16: INTCONbits.PEIE_GIEL = 1;
   972  000458  8CF2               	bsf	intcon,6,c	;volatile
   973  00045A  0012               	return		;funcret
   974  00045C                     __end_of_I2CSetup:
   975                           	opt stack 0
   976                           tblptru	equ	0xFF8
   977                           tblptrh	equ	0xFF7
   978                           tblptrl	equ	0xFF6
   979                           tablat	equ	0xFF5
   980                           intcon	equ	0xFF2
   981                           postinc0	equ	0xFEE
   982                           wreg	equ	0xFE8
   983                           status	equ	0xFD8
   984                           
   985 ;; *************** function _ECAN_Transmit *****************
   986 ;; Defined at:
   987 ;;		line 305 in file "ECAN.c"
   988 ;; Parameters:    Size  Location     Type
   989 ;;  SIDH            1    wreg     unsigned char 
   990 ;;  SIDL            1   15[COMRAM] unsigned char 
   991 ;;  DLC             1   16[COMRAM] unsigned char 
   992 ;;  TRANSMIT_ID     1   17[COMRAM] unsigned char 
   993 ;;  DATA1           1   18[COMRAM] unsigned char 
   994 ;;  DATA2           1   19[COMRAM] unsigned char 
   995 ;;  DATA3           1   20[COMRAM] unsigned char 
   996 ;;  DATA4           1   21[COMRAM] unsigned char 
   997 ;;  DATA5           1   22[COMRAM] unsigned char 
   998 ;;  DATA6           1   23[COMRAM] unsigned char 
   999 ;;  DATA7           1   24[COMRAM] unsigned char 
  1000 ;; Auto vars:     Size  Location     Type
  1001 ;;  SIDH            1   25[COMRAM] unsigned char 
  1002 ;; Return value:  Size  Location     Type
  1003 ;;		None               void
  1004 ;; Registers used:
  1005 ;;		wreg, status,2
  1006 ;; Tracked objects:
  1007 ;;		On entry : 0/0
  1008 ;;		On exit  : 0/0
  1009 ;;		Unchanged: 0/0
  1010 ;; Data sizes:     COMRAM   BANK0   BANK1   BANK2   BANK3   BANK4   BANK5   BANK6   BANK7   BANK8   BANK9  BANK10  BANK1
      +1  BANK12  BANK13  BANK14
  1011 ;;      Params:        10       0       0       0       0       0       0       0       0       0       0       0       
      +0       0       0       0
  1012 ;;      Locals:         1       0       0       0       0       0       0       0       0       0       0       0       
      +0       0       0       0
  1013 ;;      Temps:          0       0       0       0       0       0       0       0       0       0       0       0       
      +0       0       0       0
  1014 ;;      Totals:        11       0       0       0       0       0       0       0       0       0       0       0       
      +0       0       0       0
  1015 ;;Total ram usage:       11 bytes
  1016 ;; Hardware stack levels used:    1
  1017 ;; Hardware stack levels required when called:    2
  1018 ;; This function calls:
  1019 ;;		Nothing
  1020 ;; This function is called by:
  1021 ;;		_main
  1022 ;; This function uses a non-reentrant model
  1023 ;;
  1024                           
  1025                           	psect	text5
  1026  000368                     __ptext5:
  1027                           	opt stack 0
  1028  000368                     _ECAN_Transmit:
  1029                           	opt stack 28
  1030                           
  1031                           ;incstack = 0
  1032                           ;ECAN_Transmit@SIDH stored from wreg
  1033  000368  6E3F               	movwf	ECAN_Transmit@SIDH,c
  1034                           
  1035                           ;ECAN.c: 317: TXB0EIDH = 0x00;
  1036  00036A  0E00               	movlw	0
  1037  00036C  010F               	movlb	15	; () banked
  1038  00036E  6F23               	movwf	35,b	;volatile
  1039                           
  1040                           ;ECAN.c: 318: TXB0EIDL = 0x00;
  1041  000370  0E00               	movlw	0
  1042  000372  010F               	movlb	15	; () banked
  1043  000374  6F24               	movwf	36,b	;volatile
  1044                           
  1045                           ; BSR set to: 15
  1046                           ;ECAN.c: 321: TXB0SIDH = SIDH;
  1047  000376  C03F  FF21         	movff	ECAN_Transmit@SIDH,3873	;volatile
  1048                           
  1049                           ; BSR set to: 15
  1050                           ;ECAN.c: 322: TXB0SIDL = SIDL;
  1051  00037A  C035  FF22         	movff	ECAN_Transmit@SIDL,3874	;volatile
  1052                           
  1053                           ; BSR set to: 15
  1054                           ;ECAN.c: 323: TXB0DLC = DLC;
  1055  00037E  C036  FF25         	movff	ECAN_Transmit@DLC,3877	;volatile
  1056                           
  1057                           ; BSR set to: 15
  1058                           ;ECAN.c: 332: TXB0D0 = TRANSMIT_ID;
  1059  000382  C037  FF26         	movff	ECAN_Transmit@TRANSMIT_ID,3878	;volatile
  1060                           
  1061                           ; BSR set to: 15
  1062                           ;ECAN.c: 333: TXB0D1 = DATA1;
  1063  000386  C038  FF27         	movff	ECAN_Transmit@DATA1,3879	;volatile
  1064                           
  1065                           ; BSR set to: 15
  1066                           ;ECAN.c: 334: TXB0D2 = DATA2;
  1067  00038A  C039  FF28         	movff	ECAN_Transmit@DATA2,3880	;volatile
  1068                           
  1069                           ; BSR set to: 15
  1070                           ;ECAN.c: 335: TXB0D3 = DATA3;
  1071  00038E  C03A  FF29         	movff	ECAN_Transmit@DATA3,3881	;volatile
  1072                           
  1073                           ; BSR set to: 15
  1074                           ;ECAN.c: 336: TXB0D4 = DATA4;
  1075  000392  C03B  FF2A         	movff	ECAN_Transmit@DATA4,3882	;volatile
  1076                           
  1077                           ; BSR set to: 15
  1078                           ;ECAN.c: 337: TXB0D5 = DATA5;
  1079  000396  C03C  FF2B         	movff	ECAN_Transmit@DATA5,3883	;volatile
  1080                           
  1081                           ; BSR set to: 15
  1082                           ;ECAN.c: 338: TXB0D6 = DATA6;
  1083  00039A  C03D  FF2C         	movff	ECAN_Transmit@DATA6,3884	;volatile
  1084                           
  1085                           ; BSR set to: 15
  1086                           ;ECAN.c: 339: TXB0D7 = DATA7;
  1087  00039E  C03E  FF2D         	movff	ECAN_Transmit@DATA7,3885	;volatile
  1088                           
  1089                           ; BSR set to: 15
  1090                           ;ECAN.c: 341: TXB0CONbits.TXREQ = 1;
  1091  0003A2  010F               	movlb	15	; () banked
  1092  0003A4  8720               	bsf	32,3,b	;volatile
  1093                           
  1094                           ; BSR set to: 15
  1095  0003A6  0012               	return		;funcret
  1096  0003A8                     __end_of_ECAN_Transmit:
  1097                           	opt stack 0
  1098                           tblptru	equ	0xFF8
  1099                           tblptrh	equ	0xFF7
  1100                           tblptrl	equ	0xFF6
  1101                           tablat	equ	0xFF5
  1102                           intcon	equ	0xFF2
  1103                           postinc0	equ	0xFEE
  1104                           wreg	equ	0xFE8
  1105                           status	equ	0xFD8
  1106                           
  1107 ;; *************** function _Delay *****************
  1108 ;; Defined at:
  1109 ;;		line 34 in file "Other.c"
  1110 ;; Parameters:    Size  Location     Type
  1111 ;;  count           2   15[COMRAM] unsigned int 
  1112 ;; Auto vars:     Size  Location     Type
  1113 ;;		None
  1114 ;; Return value:  Size  Location     Type
  1115 ;;		None               void
  1116 ;; Registers used:
  1117 ;;		wreg, status,2, status,0
  1118 ;; Tracked objects:
  1119 ;;		On entry : 0/0
  1120 ;;		On exit  : 0/0
  1121 ;;		Unchanged: 0/0
  1122 ;; Data sizes:     COMRAM   BANK0   BANK1   BANK2   BANK3   BANK4   BANK5   BANK6   BANK7   BANK8   BANK9  BANK10  BANK1
      +1  BANK12  BANK13  BANK14
  1123 ;;      Params:         2       0       0       0       0       0       0       0       0       0       0       0       
      +0       0       0       0
  1124 ;;      Locals:         0       0       0       0       0       0       0       0       0       0       0       0       
      +0       0       0       0
  1125 ;;      Temps:          0       0       0       0       0       0       0       0       0       0       0       0       
      +0       0       0       0
  1126 ;;      Totals:         2       0       0       0       0       0       0       0       0       0       0       0       
      +0       0       0       0
  1127 ;;Total ram usage:        2 bytes
  1128 ;; Hardware stack levels used:    1
  1129 ;; Hardware stack levels required when called:    2
  1130 ;; This function calls:
  1131 ;;		Nothing
  1132 ;; This function is called by:
  1133 ;;		_main
  1134 ;; This function uses a non-reentrant model
  1135 ;;
  1136                           
  1137                           	psect	text6
  1138  00045C                     __ptext6:
  1139                           	opt stack 0
  1140  00045C                     _Delay:
  1141                           	opt stack 28
  1142  00045C                     l1262:
  1143  00045C  0635               	decf	Delay@count,f,c
  1144  00045E  A0D8               	btfss	status,0,c
  1145  000460  0636               	decf	Delay@count+1,f,c
  1146  000462  2835               	incf	Delay@count,w,c
  1147  000464  E1FB               	bnz	l1262
  1148  000466  2836               	incf	Delay@count+1,w,c
  1149  000468  B4D8               	btfsc	status,2,c
  1150  00046A  0012               	return	
  1151  00046C  D7F7               	goto	l1262
  1152  00046E                     __end_of_Delay:
  1153                           	opt stack 0
  1154                           tblptru	equ	0xFF8
  1155                           tblptrh	equ	0xFF7
  1156                           tblptrl	equ	0xFF6
  1157                           tablat	equ	0xFF5
  1158                           intcon	equ	0xFF2
  1159                           postinc0	equ	0xFEE
  1160                           wreg	equ	0xFE8
  1161                           status	equ	0xFD8
  1162                           
  1163 ;; *************** function _CANSetup *****************
  1164 ;; Defined at:
  1165 ;;		line 113 in file "ECAN.c"
  1166 ;; Parameters:    Size  Location     Type
  1167 ;;		None
  1168 ;; Auto vars:     Size  Location     Type
  1169 ;;		None
  1170 ;; Return value:  Size  Location     Type
  1171 ;;		None               void
  1172 ;; Registers used:
  1173 ;;		wreg, status,2, status,0
  1174 ;; Tracked objects:
  1175 ;;		On entry : 0/0
  1176 ;;		On exit  : 0/0
  1177 ;;		Unchanged: 0/0
  1178 ;; Data sizes:     COMRAM   BANK0   BANK1   BANK2   BANK3   BANK4   BANK5   BANK6   BANK7   BANK8   BANK9  BANK10  BANK1
      +1  BANK12  BANK13  BANK14
  1179 ;;      Params:         0       0       0       0       0       0       0       0       0       0       0       0       
      +0       0       0       0
  1180 ;;      Locals:         0       0       0       0       0       0       0       0       0       0       0       0       
      +0       0       0       0
  1181 ;;      Temps:          0       0       0       0       0       0       0       0       0       0       0       0       
      +0       0       0       0
  1182 ;;      Totals:         0       0       0       0       0       0       0       0       0       0       0       0       
      +0       0       0       0
  1183 ;;Total ram usage:        0 bytes
  1184 ;; Hardware stack levels used:    1
  1185 ;; Hardware stack levels required when called:    2
  1186 ;; This function calls:
  1187 ;;		Nothing
  1188 ;; This function is called by:
  1189 ;;		_main
  1190 ;; This function uses a non-reentrant model
  1191 ;;
  1192                           
  1193                           	psect	text7
  1194  000086                     __ptext7:
  1195                           	opt stack 0
  1196  000086                     _CANSetup:
  1197                           	opt stack 28
  1198                           
  1199                           ;ECAN.c: 116: CANCON = 0x80;
  1200                           
  1201                           ;incstack = 0
  1202  000086  0E80               	movlw	128
  1203  000088  6E6F               	movwf	3951,c	;volatile
  1204  00008A                     l1130:
  1205  00008A  386E               	swapf	3950,w,c	;volatile
  1206  00008C  32E8               	rrcf	wreg,f,c
  1207  00008E  0B07               	andlw	7
  1208  000090  0A04               	xorlw	4
  1209  000092  A4D8               	btfss	status,2,c
  1210  000094  D7FA               	goto	l1130
  1211                           
  1212                           ;ECAN.c: 120: ECANCON = 0x40;
  1213  000096  0E40               	movlw	64
  1214  000098  6E72               	movwf	3954,c	;volatile
  1215                           
  1216                           ;ECAN.c: 124: BRGCON1 = 0x81;
  1217  00009A  0E81               	movlw	129
  1218  00009C  010E               	movlb	14	; () banked
  1219  00009E  6F43               	movwf	67,b	;volatile
  1220                           
  1221                           ;ECAN.c: 125: BRGCON2 = 0xB8;
  1222  0000A0  0EB8               	movlw	184
  1223  0000A2  010E               	movlb	14	; () banked
  1224  0000A4  6F44               	movwf	68,b	;volatile
  1225                           
  1226                           ;ECAN.c: 126: BRGCON3 = 0x05;
  1227  0000A6  0E05               	movlw	5
  1228  0000A8  010E               	movlb	14	; () banked
  1229  0000AA  6F45               	movwf	69,b	;volatile
  1230                           
  1231                           ;ECAN.c: 131: BSEL0 = 0xF8;
  1232  0000AC  0EF8               	movlw	248
  1233  0000AE  010E               	movlb	14	; () banked
  1234  0000B0  6F7D               	movwf	125,b	;volatile
  1235                           
  1236                           ;ECAN.c: 135: RXM0EIDH = 0x00;
  1237  0000B2  0E00               	movlw	0
  1238  0000B4  010E               	movlb	14	; () banked
  1239  0000B6  6FFA               	movwf	250,b	;volatile
  1240                           
  1241                           ;ECAN.c: 136: RXM0EIDL = 0x00;
  1242  0000B8  0E00               	movlw	0
  1243  0000BA  010E               	movlb	14	; () banked
  1244  0000BC  6FFB               	movwf	251,b	;volatile
  1245                           
  1246                           ; BSR set to: 14
  1247                           ;ECAN.c: 137: RXM0SIDH = 0xFF;
  1248  0000BE  010E               	movlb	14	; () banked
  1249  0000C0  69F8               	setf	248,b	;volatile
  1250                           
  1251                           ;ECAN.c: 138: RXM0SIDL = 0xE0;
  1252  0000C2  0EE0               	movlw	224
  1253  0000C4  010E               	movlb	14	; () banked
  1254  0000C6  6FF9               	movwf	249,b	;volatile
  1255                           
  1256                           ;ECAN.c: 141: RXM1EIDH = 0x00;
  1257  0000C8  0E00               	movlw	0
  1258  0000CA  010E               	movlb	14	; () banked
  1259  0000CC  6FFE               	movwf	254,b	;volatile
  1260                           
  1261                           ;ECAN.c: 142: RXM1EIDL = 0x00;
  1262  0000CE  0E00               	movlw	0
  1263  0000D0  010E               	movlb	14	; () banked
  1264  0000D2  6FFF               	movwf	255,b	;volatile
  1265                           
  1266                           ; BSR set to: 14
  1267                           ;ECAN.c: 143: RXM1SIDH = 0xFF;
  1268  0000D4  010E               	movlb	14	; () banked
  1269  0000D6  69FC               	setf	252,b	;volatile
  1270                           
  1271                           ;ECAN.c: 144: RXM1SIDL = 0xE0;
  1272  0000D8  0EE0               	movlw	224
  1273  0000DA  010E               	movlb	14	; () banked
  1274  0000DC  6FFD               	movwf	253,b	;volatile
  1275                           
  1276                           ;ECAN.c: 148: RXFCON0 = 0x07;
  1277  0000DE  0E07               	movlw	7
  1278  0000E0  010E               	movlb	14	; () banked
  1279  0000E2  6F46               	movwf	70,b	;volatile
  1280                           
  1281                           ;ECAN.c: 149: RXFCON1 = 0x00;
  1282  0000E4  0E00               	movlw	0
  1283  0000E6  010E               	movlb	14	; () banked
  1284  0000E8  6F47               	movwf	71,b	;volatile
  1285                           
  1286                           ;ECAN.c: 152: MSEL0 = 0xC0;
  1287  0000EA  0EC0               	movlw	192
  1288  0000EC  010E               	movlb	14	; () banked
  1289  0000EE  6F79               	movwf	121,b	;volatile
  1290                           
  1291                           ; BSR set to: 14
  1292                           ;ECAN.c: 153: MSEL1 = 0xFF;
  1293  0000F0  010E               	movlb	14	; () banked
  1294  0000F2  697A               	setf	122,b	;volatile
  1295                           
  1296                           ; BSR set to: 14
  1297                           ;ECAN.c: 154: MSEL2 = 0xFF;
  1298  0000F4  010E               	movlb	14	; () banked
  1299  0000F6  697B               	setf	123,b	;volatile
  1300                           
  1301                           ; BSR set to: 14
  1302                           ;ECAN.c: 155: MSEL3 = 0xFF;
  1303  0000F8  010E               	movlb	14	; () banked
  1304  0000FA  697C               	setf	124,b	;volatile
  1305                           
  1306                           ;ECAN.c: 159: RXFBCON0 = 0x10;
  1307  0000FC  0E10               	movlw	16
  1308  0000FE  010E               	movlb	14	; () banked
  1309  000100  6F71               	movwf	113,b	;volatile
  1310                           
  1311                           ;ECAN.c: 160: RXFBCON1 = 0xF2;
  1312  000102  0EF2               	movlw	242
  1313  000104  010E               	movlb	14	; () banked
  1314  000106  6F72               	movwf	114,b	;volatile
  1315                           
  1316                           ; BSR set to: 14
  1317                           ;ECAN.c: 162: RXFBCON2 = 0xFF;
  1318  000108  010E               	movlb	14	; () banked
  1319  00010A  6973               	setf	115,b	;volatile
  1320                           
  1321                           ; BSR set to: 14
  1322                           ;ECAN.c: 163: RXFBCON3 = 0xFF;
  1323  00010C  010E               	movlb	14	; () banked
  1324  00010E  6974               	setf	116,b	;volatile
  1325                           
  1326                           ; BSR set to: 14
  1327                           ;ECAN.c: 164: RXFBCON4 = 0xFF;
  1328  000110  010E               	movlb	14	; () banked
  1329  000112  6975               	setf	117,b	;volatile
  1330                           
  1331                           ; BSR set to: 14
  1332                           ;ECAN.c: 165: RXFBCON5 = 0xFF;
  1333  000114  010E               	movlb	14	; () banked
  1334  000116  6976               	setf	118,b	;volatile
  1335                           
  1336                           ; BSR set to: 14
  1337                           ;ECAN.c: 166: RXFBCON6 = 0xFF;
  1338  000118  010E               	movlb	14	; () banked
  1339  00011A  6977               	setf	119,b	;volatile
  1340                           
  1341                           ; BSR set to: 14
  1342                           ;ECAN.c: 167: RXFBCON7 = 0xFF;
  1343  00011C  010E               	movlb	14	; () banked
  1344  00011E  6978               	setf	120,b	;volatile
  1345                           
  1346                           ;ECAN.c: 173: RXF0EIDH = 0x00;
  1347  000120  0E00               	movlw	0
  1348  000122  010E               	movlb	14	; () banked
  1349  000124  6FE2               	movwf	226,b	;volatile
  1350                           
  1351                           ;ECAN.c: 174: RXF0EIDL = 0x00;
  1352  000126  0E00               	movlw	0
  1353  000128  010E               	movlb	14	; () banked
  1354  00012A  6FE3               	movwf	227,b	;volatile
  1355                           
  1356                           ;ECAN.c: 175: RXF0SIDH = 0x32;
  1357  00012C  0E32               	movlw	50
  1358  00012E  010E               	movlb	14	; () banked
  1359  000130  6FE0               	movwf	224,b	;volatile
  1360                           
  1361                           ;ECAN.c: 176: RXF0SIDL = 0xC0;
  1362  000132  0EC0               	movlw	192
  1363  000134  010E               	movlb	14	; () banked
  1364  000136  6FE1               	movwf	225,b	;volatile
  1365                           
  1366                           ;ECAN.c: 177: RXF1EIDH = 0x00;
  1367  000138  0E00               	movlw	0
  1368  00013A  010E               	movlb	14	; () banked
  1369  00013C  6FE6               	movwf	230,b	;volatile
  1370                           
  1371                           ;ECAN.c: 178: RXF1EIDL = 0x00;
  1372  00013E  0E00               	movlw	0
  1373  000140  010E               	movlb	14	; () banked
  1374  000142  6FE7               	movwf	231,b	;volatile
  1375                           
  1376                           ;ECAN.c: 179: RXF1SIDH = 0x33;
  1377  000144  0E33               	movlw	51
  1378  000146  010E               	movlb	14	; () banked
  1379  000148  6FE4               	movwf	228,b	;volatile
  1380                           
  1381                           ;ECAN.c: 180: RXF1SIDL = 0x40;
  1382  00014A  0E40               	movlw	64
  1383  00014C  010E               	movlb	14	; () banked
  1384  00014E  6FE5               	movwf	229,b	;volatile
  1385                           
  1386                           ;ECAN.c: 181: RXF2EIDH = 0x00;
  1387  000150  0E00               	movlw	0
  1388  000152  010E               	movlb	14	; () banked
  1389  000154  6FEA               	movwf	234,b	;volatile
  1390                           
  1391                           ;ECAN.c: 182: RXF2EIDL = 0x00;
  1392  000156  0E00               	movlw	0
  1393  000158  010E               	movlb	14	; () banked
  1394  00015A  6FEB               	movwf	235,b	;volatile
  1395                           
  1396                           ;ECAN.c: 183: RXF2SIDH = 0x33;
  1397  00015C  0E33               	movlw	51
  1398  00015E  010E               	movlb	14	; () banked
  1399  000160  6FE8               	movwf	232,b	;volatile
  1400                           
  1401                           ;ECAN.c: 184: RXF2SIDL = 0xC0;
  1402  000162  0EC0               	movlw	192
  1403  000164  010E               	movlb	14	; () banked
  1404  000166  6FE9               	movwf	233,b	;volatile
  1405                           
  1406                           ;ECAN.c: 187: if (0 ==1)
  1407  000168  D00E               	goto	l1164
  1408  00016A                     l1158:
  1409  00016A  386E               	swapf	3950,w,c	;volatile
  1410  00016C  32E8               	rrcf	wreg,f,c
  1411  00016E  0B07               	andlw	7
  1412  000170  0A40               	xorlw	64
  1413  000172  A4D8               	btfss	status,2,c
  1414  000174  D017               	goto	l1172
  1415  000176  D7F9               	goto	l1158
  1416  000178                     l1162:
  1417  000178  386E               	swapf	3950,w,c	;volatile
  1418  00017A  32E8               	rrcf	wreg,f,c
  1419  00017C  0B07               	andlw	7
  1420  00017E  0A60               	xorlw	96
  1421  000180  A4D8               	btfss	status,2,c
  1422  000182  D010               	goto	l1172
  1423  000184  D7F9               	goto	l1162
  1424  000186                     l1164:
  1425                           
  1426                           ;ECAN.c: 198: CANCON = 0x00;
  1427  000186  0E00               	movlw	0
  1428  000188  6E6F               	movwf	3951,c	;volatile
  1429  00018A                     l1166:
  1430  00018A  386E               	swapf	3950,w,c	;volatile
  1431  00018C  32E8               	rrcf	wreg,f,c
  1432  00018E  0B07               	andlw	7
  1433  000190  0900               	iorlw	0
  1434  000192  A4D8               	btfss	status,2,c
  1435  000194  D007               	goto	l1172
  1436  000196  D7F9               	goto	l1166
  1437  000198                     l1170:
  1438  000198  386E               	swapf	3950,w,c	;volatile
  1439  00019A  32E8               	rrcf	wreg,f,c
  1440  00019C  0B07               	andlw	7
  1441  00019E  0A40               	xorlw	64
  1442  0001A0  B4D8               	btfsc	status,2,c
  1443  0001A2  D7FA               	goto	l1170
  1444  0001A4                     l1172:
  1445                           
  1446                           ;ECAN.c: 206: }
  1447                           ;ECAN.c: 209: RXB0CON = 0x00;
  1448  0001A4  0E00               	movlw	0
  1449  0001A6  6E60               	movwf	3936,c	;volatile
  1450                           
  1451                           ;ECAN.c: 210: RXB1CON = 0x00;
  1452  0001A8  0E00               	movlw	0
  1453  0001AA  010F               	movlb	15	; () banked
  1454  0001AC  6F30               	movwf	48,b	;volatile
  1455                           
  1456                           ; BSR set to: 15
  1457  0001AE  0012               	return		;funcret
  1458  0001B0                     __end_of_CANSetup:
  1459                           	opt stack 0
  1460                           tblptru	equ	0xFF8
  1461                           tblptrh	equ	0xFF7
  1462                           tblptrl	equ	0xFF6
  1463                           tablat	equ	0xFF5
  1464                           intcon	equ	0xFF2
  1465                           postinc0	equ	0xFEE
  1466                           wreg	equ	0xFE8
  1467                           status	equ	0xFD8
  1468                           
  1469 ;; *************** function _ISR *****************
  1470 ;; Defined at:
  1471 ;;		line 9 in file "main.c"
  1472 ;; Parameters:    Size  Location     Type
  1473 ;;		None
  1474 ;; Auto vars:     Size  Location     Type
  1475 ;;		None
  1476 ;; Return value:  Size  Location     Type
  1477 ;;		None               void
  1478 ;; Registers used:
  1479 ;;		wreg, fsr2l, fsr2h, status,2, status,0, prodl, prodh, cstack
  1480 ;; Tracked objects:
  1481 ;;		On entry : 0/0
  1482 ;;		On exit  : 0/0
  1483 ;;		Unchanged: 0/0
  1484 ;; Data sizes:     COMRAM   BANK0   BANK1   BANK2   BANK3   BANK4   BANK5   BANK6   BANK7   BANK8   BANK9  BANK10  BANK1
      +1  BANK12  BANK13  BANK14
  1485 ;;      Params:         0       0       0       0       0       0       0       0       0       0       0       0       
      +0       0       0       0
  1486 ;;      Locals:         0       0       0       0       0       0       0       0       0       0       0       0       
      +0       0       0       0
  1487 ;;      Temps:         14       0       0       0       0       0       0       0       0       0       0       0       
      +0       0       0       0
  1488 ;;      Totals:        14       0       0       0       0       0       0       0       0       0       0       0       
      +0       0       0       0
  1489 ;;Total ram usage:       14 bytes
  1490 ;; Hardware stack levels used:    1
  1491 ;; Hardware stack levels required when called:    1
  1492 ;; This function calls:
  1493 ;;		_checkI2C
  1494 ;; This function is called by:
  1495 ;;		Interrupt level 2
  1496 ;; This function uses a non-reentrant model
  1497 ;;
  1498                           
  1499                           	psect	intcode
  1500  000008                     __pintcode:
  1501                           	opt stack 0
  1502  000008                     _ISR:
  1503                           	opt stack 27
  1504                           
  1505                           ; BSR set to: 15
  1506                           ;incstack = 0
  1507  000008  8243               	bsf	btemp,1,c	;set compiler interrupt flag (level 2)
  1508  00000A  CFFA F027          	movff	pclath,??_ISR
  1509  00000E  CFFB F028          	movff	pclatu,??_ISR+1
  1510  000012  CFE9 F029          	movff	fsr0l,??_ISR+2
  1511  000016  CFEA F02A          	movff	fsr0h,??_ISR+3
  1512  00001A  CFE1 F02B          	movff	fsr1l,??_ISR+4
  1513  00001E  CFE2 F02C          	movff	fsr1h,??_ISR+5
  1514  000022  CFD9 F02D          	movff	fsr2l,??_ISR+6
  1515  000026  CFDA F02E          	movff	fsr2h,??_ISR+7
  1516  00002A  CFF3 F02F          	movff	prodl,??_ISR+8
  1517  00002E  CFF4 F030          	movff	prodh,??_ISR+9
  1518  000032  CFF6 F031          	movff	tblptrl,??_ISR+10
  1519  000036  CFF7 F032          	movff	tblptrh,??_ISR+11
  1520  00003A  CFF8 F033          	movff	tblptru,??_ISR+12
  1521  00003E  CFF5 F034          	movff	tablat,??_ISR+13
  1522                           
  1523                           ;main.c: 11: checkI2C();
  1524  000042  EC43  F001         	call	_checkI2C	;wreg free
  1525  000046  C034  FFF5         	movff	??_ISR+13,tablat
  1526  00004A  C033  FFF8         	movff	??_ISR+12,tblptru
  1527  00004E  C032  FFF7         	movff	??_ISR+11,tblptrh
  1528  000052  C031  FFF6         	movff	??_ISR+10,tblptrl
  1529  000056  C030  FFF4         	movff	??_ISR+9,prodh
  1530  00005A  C02F  FFF3         	movff	??_ISR+8,prodl
  1531  00005E  C02E  FFDA         	movff	??_ISR+7,fsr2h
  1532  000062  C02D  FFD9         	movff	??_ISR+6,fsr2l
  1533  000066  C02C  FFE2         	movff	??_ISR+5,fsr1h
  1534  00006A  C02B  FFE1         	movff	??_ISR+4,fsr1l
  1535  00006E  C02A  FFEA         	movff	??_ISR+3,fsr0h
  1536  000072  C029  FFE9         	movff	??_ISR+2,fsr0l
  1537  000076  C028  FFFB         	movff	??_ISR+1,pclatu
  1538  00007A  C027  FFFA         	movff	??_ISR,pclath
  1539  00007E  9243               	bcf	btemp,1,c	;clear compiler interrupt flag (level 2)
  1540  000080  0011               	retfie		f
  1541  000082                     __end_of_ISR:
  1542                           	opt stack 0
  1543                           pclatu	equ	0xFFB
  1544                           pclath	equ	0xFFA
  1545                           tblptru	equ	0xFF8
  1546                           tblptrh	equ	0xFF7
  1547                           tblptrl	equ	0xFF6
  1548                           tablat	equ	0xFF5
  1549                           prodh	equ	0xFF4
  1550                           prodl	equ	0xFF3
  1551                           intcon	equ	0xFF2
  1552                           postinc0	equ	0xFEE
  1553                           fsr0h	equ	0xFEA
  1554                           fsr0l	equ	0xFE9
  1555                           wreg	equ	0xFE8
  1556                           fsr1h	equ	0xFE2
  1557                           fsr1l	equ	0xFE1
  1558                           fsr2h	equ	0xFDA
  1559                           fsr2l	equ	0xFD9
  1560                           status	equ	0xFD8
  1561                           
  1562 ;; *************** function _checkI2C *****************
  1563 ;; Defined at:
  1564 ;;		line 21 in file "I2C.c"
  1565 ;; Parameters:    Size  Location     Type
  1566 ;;		None
  1567 ;; Auto vars:     Size  Location     Type
  1568 ;;  sspBuf          1    0[COMRAM] unsigned char 
  1569 ;; Return value:  Size  Location     Type
  1570 ;;		None               void
  1571 ;; Registers used:
  1572 ;;		wreg, fsr2l, fsr2h, status,2, status,0, prodl, prodh
  1573 ;; Tracked objects:
  1574 ;;		On entry : 0/0
  1575 ;;		On exit  : 0/0
  1576 ;;		Unchanged: 0/0
  1577 ;; Data sizes:     COMRAM   BANK0   BANK1   BANK2   BANK3   BANK4   BANK5   BANK6   BANK7   BANK8   BANK9  BANK10  BANK1
      +1  BANK12  BANK13  BANK14
  1578 ;;      Params:         0       0       0       0       0       0       0       0       0       0       0       0       
      +0       0       0       0
  1579 ;;      Locals:         1       0       0       0       0       0       0       0       0       0       0       0       
      +0       0       0       0
  1580 ;;      Temps:          0       0       0       0       0       0       0       0       0       0       0       0       
      +0       0       0       0
  1581 ;;      Totals:         1       0       0       0       0       0       0       0       0       0       0       0       
      +0       0       0       0
  1582 ;;Total ram usage:        1 bytes
  1583 ;; Hardware stack levels used:    1
  1584 ;; This function calls:
  1585 ;;		Nothing
  1586 ;; This function is called by:
  1587 ;;		_ISR
  1588 ;; This function uses a non-reentrant model
  1589 ;;
  1590                           
  1591                           	psect	text9
  1592  000286                     __ptext9:
  1593                           	opt stack 0
  1594  000286                     _checkI2C:
  1595                           	opt stack 27
  1596                           
  1597                           ;I2C.c: 23: byte sspBuf;
  1598                           ;I2C.c: 25: if (PIR1bits.SSPIF) {
  1599                           
  1600                           ;incstack = 0
  1601  000286  A69E               	btfss	3998,3,c	;volatile
  1602  000288  0012               	return	
  1603                           
  1604                           ;I2C.c: 27: if (!SSPSTATbits.D_NOT_A) {
  1605  00028A  BAC7               	btfsc	4039,5,c	;volatile
  1606  00028C  D014               	goto	i2l1086
  1607                           
  1608                           ;I2C.c: 31: i2c_byte_count = 0;
  1609  00028E  0E00               	movlw	0
  1610  000290  6E17               	movwf	_i2c_byte_count,c	;volatile
  1611                           
  1612                           ;I2C.c: 33: if (SSPSTATbits.BF) {
  1613  000292  B0C7               	btfsc	4039,0,c	;volatile
  1614                           
  1615                           ;I2C.c: 35: sspBuf = SSPBUF;
  1616  000294  CFC9 F026          	movff	4041,checkI2C@sspBuf	;volatile
  1617                           
  1618                           ;I2C.c: 36: }
  1619                           ;I2C.c: 38: if (SSPSTATbits.R_NOT_W) {
  1620  000298  A4C7               	btfss	4039,2,c	;volatile
  1621  00029A  D036               	goto	i2l1110
  1622                           
  1623                           ;I2C.c: 40: SSPCON1bits.WCOL = 0;
  1624  00029C  9EC6               	bcf	4038,7,c	;volatile
  1625                           
  1626                           ;I2C.c: 41: SSPBUF = i2c_reg_map[i2c_reg_addr++];
  1627  00029E  5018               	movf	_i2c_reg_addr,w,c	;volatile
  1628  0002A0  0D01               	mullw	1
  1629  0002A2  0E01               	movlw	low _i2c_reg_map
  1630  0002A4  24F3               	addwf	prodl,w,c
  1631  0002A6  6ED9               	movwf	fsr2l,c
  1632  0002A8  0E00               	movlw	high _i2c_reg_map
  1633  0002AA  20F4               	addwfc	prodh,w,c
  1634  0002AC  6EDA               	movwf	fsr2h,c
  1635  0002AE  50DF               	movf	indf2,w,c
  1636  0002B0  6EC9               	movwf	4041,c	;volatile
  1637  0002B2  2A18               	incf	_i2c_reg_addr,f,c	;volatile
  1638                           
  1639                           ;I2C.c: 42: }
  1640                           ;I2C.c: 43: }
  1641  0002B4  D029               	goto	i2l1110
  1642  0002B6                     i2l1086:
  1643                           
  1644                           ;I2C.c: 44: else {
  1645                           ;I2C.c: 48: i2c_byte_count++;
  1646  0002B6  2A17               	incf	_i2c_byte_count,f,c	;volatile
  1647                           
  1648                           ;I2C.c: 50: if (SSPSTATbits.BF) {
  1649  0002B8  B0C7               	btfsc	4039,0,c	;volatile
  1650                           
  1651                           ;I2C.c: 51: sspBuf = SSPBUF;
  1652  0002BA  CFC9 F026          	movff	4041,checkI2C@sspBuf	;volatile
  1653                           
  1654                           ;I2C.c: 52: }
  1655                           ;I2C.c: 54: if (SSPSTATbits.R_NOT_W) {
  1656  0002BE  A4C7               	btfss	4039,2,c	;volatile
  1657  0002C0  D00E               	goto	i2l1100
  1658                           
  1659                           ;I2C.c: 57: SSPCON1bits.WCOL = 0;
  1660  0002C2  9EC6               	bcf	4038,7,c	;volatile
  1661                           
  1662                           ;I2C.c: 58: SSPBUF = i2c_reg_map[i2c_reg_addr++];
  1663  0002C4  5018               	movf	_i2c_reg_addr,w,c	;volatile
  1664  0002C6  0D01               	mullw	1
  1665  0002C8  0E01               	movlw	low _i2c_reg_map
  1666  0002CA  24F3               	addwf	prodl,w,c
  1667  0002CC  6ED9               	movwf	fsr2l,c
  1668  0002CE  0E00               	movlw	high _i2c_reg_map
  1669  0002D0  20F4               	addwfc	prodh,w,c
  1670  0002D2  6EDA               	movwf	fsr2h,c
  1671  0002D4  50DF               	movf	indf2,w,c
  1672  0002D6  6EC9               	movwf	4041,c	;volatile
  1673  0002D8  2A18               	incf	_i2c_reg_addr,f,c	;volatile
  1674                           
  1675                           ;I2C.c: 59: LATAbits.LATA6 = 1;
  1676  0002DA  8C89               	bsf	3977,6,c	;volatile
  1677                           
  1678                           ;I2C.c: 61: }
  1679  0002DC  D015               	goto	i2l1110
  1680  0002DE                     i2l1100:
  1681                           
  1682                           ;I2C.c: 62: else {
  1683                           ;I2C.c: 64: if (i2c_byte_count == 1) {
  1684  0002DE  0417               	decf	_i2c_byte_count,w,c	;volatile
  1685  0002E0  A4D8               	btfss	status,2,c
  1686  0002E2  D003               	goto	i2l1104
  1687                           
  1688                           ;I2C.c: 66: i2c_reg_addr = sspBuf;
  1689  0002E4  C026  F018         	movff	checkI2C@sspBuf,_i2c_reg_addr	;volatile
  1690                           
  1691                           ;I2C.c: 68: }
  1692  0002E8  D00F               	goto	i2l1110
  1693  0002EA                     i2l1104:
  1694                           
  1695                           ;I2C.c: 69: else {
  1696                           ;I2C.c: 72: i2c_reg_map[i2c_reg_addr++] = sspBuf;
  1697  0002EA  5018               	movf	_i2c_reg_addr,w,c	;volatile
  1698  0002EC  0D01               	mullw	1
  1699  0002EE  0E01               	movlw	low _i2c_reg_map
  1700  0002F0  24F3               	addwf	prodl,w,c
  1701  0002F2  6ED9               	movwf	fsr2l,c
  1702  0002F4  0E00               	movlw	high _i2c_reg_map
  1703  0002F6  20F4               	addwfc	prodh,w,c
  1704  0002F8  6EDA               	movwf	fsr2h,c
  1705  0002FA  C026  FFDF         	movff	checkI2C@sspBuf,indf2
  1706  0002FE  2A18               	incf	_i2c_reg_addr,f,c	;volatile
  1707                           
  1708                           ;I2C.c: 73: I2C_FLAG = 1;
  1709  000300  0E00               	movlw	0
  1710  000302  6E12               	movwf	_I2C_FLAG+1,c
  1711  000304  0E01               	movlw	1
  1712  000306  6E11               	movwf	_I2C_FLAG,c
  1713  000308                     i2l1110:
  1714                           
  1715                           ;I2C.c: 74: }
  1716                           ;I2C.c: 75: }
  1717                           ;I2C.c: 76: }
  1718                           ;I2C.c: 78: i2c_reg_addr %= sizeof(i2c_reg_map);
  1719  000308  0E0F               	movlw	15
  1720  00030A  1618               	andwf	_i2c_reg_addr,f,c	;volatile
  1721                           
  1722                           ;I2C.c: 81: PIR1bits.SSPIF = 0;
  1723  00030C  969E               	bcf	3998,3,c	;volatile
  1724                           
  1725                           ;I2C.c: 82: SSPCON1bits.CKP = 1;
  1726  00030E  88C6               	bsf	4038,4,c	;volatile
  1727  000310  0012               	return	
  1728  000312                     __end_of_checkI2C:
  1729                           	opt stack 0
  1730  0000                     pclatu	equ	0xFFB
  1731                           pclath	equ	0xFFA
  1732                           tblptru	equ	0xFF8
  1733                           tblptrh	equ	0xFF7
  1734                           tblptrl	equ	0xFF6
  1735                           tablat	equ	0xFF5
  1736                           prodh	equ	0xFF4
  1737                           prodl	equ	0xFF3
  1738                           intcon	equ	0xFF2
  1739                           postinc0	equ	0xFEE
  1740                           fsr0h	equ	0xFEA
  1741                           fsr0l	equ	0xFE9
  1742                           wreg	equ	0xFE8
  1743                           fsr1h	equ	0xFE2
  1744                           fsr1l	equ	0xFE1
  1745                           indf2	equ	0xFDF
  1746                           fsr2h	equ	0xFDA
  1747                           fsr2l	equ	0xFD9
  1748                           status	equ	0xFD8
  1749                           pclatu	equ	0xFFB
  1750                           pclath	equ	0xFFA
  1751                           tblptru	equ	0xFF8
  1752                           tblptrh	equ	0xFF7
  1753                           tblptrl	equ	0xFF6
  1754                           tablat	equ	0xFF5
  1755                           prodh	equ	0xFF4
  1756                           prodl	equ	0xFF3
  1757                           intcon	equ	0xFF2
  1758                           postinc0	equ	0xFEE
  1759                           fsr0h	equ	0xFEA
  1760                           fsr0l	equ	0xFE9
  1761                           wreg	equ	0xFE8
  1762                           fsr1h	equ	0xFE2
  1763                           fsr1l	equ	0xFE1
  1764                           indf2	equ	0xFDF
  1765                           fsr2h	equ	0xFDA
  1766                           fsr2l	equ	0xFD9
  1767                           status	equ	0xFD8
  1768                           
  1769                           	psect	rparam
  1770  0000                     pclatu	equ	0xFFB
  1771                           pclath	equ	0xFFA
  1772                           tblptru	equ	0xFF8
  1773                           tblptrh	equ	0xFF7
  1774                           tblptrl	equ	0xFF6
  1775                           tablat	equ	0xFF5
  1776                           prodh	equ	0xFF4
  1777                           prodl	equ	0xFF3
  1778                           intcon	equ	0xFF2
  1779                           postinc0	equ	0xFEE
  1780                           fsr0h	equ	0xFEA
  1781                           fsr0l	equ	0xFE9
  1782                           wreg	equ	0xFE8
  1783                           fsr1h	equ	0xFE2
  1784                           fsr1l	equ	0xFE1
  1785                           indf2	equ	0xFDF
  1786                           fsr2h	equ	0xFDA
  1787                           fsr2l	equ	0xFD9
  1788                           status	equ	0xFD8
  1789                           
  1790                           	psect	temp
  1791  000043                     btemp:
  1792                           	opt stack 0
  1793  000043                     	ds	1
  1794  0000                     int$flags	set	btemp
  1795                           pclatu	equ	0xFFB
  1796                           pclath	equ	0xFFA
  1797                           tblptru	equ	0xFF8
  1798                           tblptrh	equ	0xFF7
  1799                           tblptrl	equ	0xFF6
  1800                           tablat	equ	0xFF5
  1801                           prodh	equ	0xFF4
  1802                           prodl	equ	0xFF3
  1803                           intcon	equ	0xFF2
  1804                           postinc0	equ	0xFEE
  1805                           fsr0h	equ	0xFEA
  1806                           fsr0l	equ	0xFE9
  1807                           wreg	equ	0xFE8
  1808                           fsr1h	equ	0xFE2
  1809                           fsr1l	equ	0xFE1
  1810                           indf2	equ	0xFDF
  1811                           fsr2h	equ	0xFDA
  1812                           fsr2l	equ	0xFD9
  1813                           status	equ	0xFD8


Data Sizes:
    Strings     0
    Constant    0
    Data        2
    BSS         37
    Persistent  1
    Stack       0

Auto Spaces:
    Space          Size  Autos    Used
    COMRAM           94     26      66
    BANK0           160      0       0
    BANK1           256      0       0
    BANK2           256      0       0
    BANK3           256      0       0
    BANK4           256      0       0
    BANK5           256      0       0
    BANK6           256      0       0
    BANK7           256      0       0
    BANK8           256      0       0
    BANK9           256      0       0
    BANK10          256      0       0
    BANK11          256      0       0
    BANK12          256      0       0
    BANK13          256      0       0
    BANK14           65      0       0

Pointer List with Targets:

    None.

Critical Paths under _main in COMRAM

    _main->_ECAN_Transmit
    _checkCAN->_ECAN_Receive

Critical Paths under _ISR in COMRAM

    _ISR->_checkI2C

Critical Paths under _main in BANK0

    None.

Critical Paths under _ISR in BANK0

    None.

Critical Paths under _main in BANK1

    None.

Critical Paths under _ISR in BANK1

    None.

Critical Paths under _main in BANK2

    None.

Critical Paths under _ISR in BANK2

    None.

Critical Paths under _main in BANK3

    None.

Critical Paths under _ISR in BANK3

    None.

Critical Paths under _main in BANK4

    None.

Critical Paths under _ISR in BANK4

    None.

Critical Paths under _main in BANK5

    None.

Critical Paths under _ISR in BANK5

    None.

Critical Paths under _main in BANK6

    None.

Critical Paths under _ISR in BANK6

    None.

Critical Paths under _main in BANK7

    None.

Critical Paths under _ISR in BANK7

    None.

Critical Paths under _main in BANK8

    None.

Critical Paths under _ISR in BANK8

    None.

Critical Paths under _main in BANK9

    None.

Critical Paths under _ISR in BANK9

    None.

Critical Paths under _main in BANK10

    None.

Critical Paths under _ISR in BANK10

    None.

Critical Paths under _main in BANK11

    None.

Critical Paths under _ISR in BANK11

    None.

Critical Paths under _main in BANK12

    None.

Critical Paths under _ISR in BANK12

    None.

Critical Paths under _main in BANK13

    None.

Critical Paths under _ISR in BANK13

    None.

Critical Paths under _main in BANK14

    None.

Critical Paths under _ISR in BANK14

    None.

Call Graph Tables:

 ---------------------------------------------------------------------------------
 (Depth) Function   	        Calls       Base Space   Used Autos Params    Refs
 ---------------------------------------------------------------------------------
 (0) _main                                                 0     0      0     752
                           _CANSetup
                              _Delay
                      _ECAN_Transmit
                           _I2CSetup
                         _InitDevice
                           _checkCAN
 ---------------------------------------------------------------------------------
 (1) _checkCAN                                             0     0      0      15
                       _ECAN_Receive
 ---------------------------------------------------------------------------------
 (2) _ECAN_Receive                                         1     1      0      15
                                             15 COMRAM     1     1      0
 ---------------------------------------------------------------------------------
 (1) _InitDevice                                           0     0      0       0
 ---------------------------------------------------------------------------------
 (1) _I2CSetup                                             0     0      0       0
 ---------------------------------------------------------------------------------
 (1) _ECAN_Transmit                                       11     1     10     672
                                             15 COMRAM    11     1     10
 ---------------------------------------------------------------------------------
 (1) _Delay                                                2     0      2      65
                                             15 COMRAM     2     0      2
 ---------------------------------------------------------------------------------
 (1) _CANSetup                                             0     0      0       0
 ---------------------------------------------------------------------------------
 Estimated maximum stack depth 2
 ---------------------------------------------------------------------------------
 (Depth) Function   	        Calls       Base Space   Used Autos Params    Refs
 ---------------------------------------------------------------------------------
 (3) _ISR                                                 14    14      0      30
                                              1 COMRAM    14    14      0
                           _checkI2C
 ---------------------------------------------------------------------------------
 (4) _checkI2C                                             1     1      0      30
                                              0 COMRAM     1     1      0
 ---------------------------------------------------------------------------------
 Estimated maximum stack depth 4
 ---------------------------------------------------------------------------------

 Call Graph Graphs:

 _main (ROOT)
   _CANSetup
   _Delay
   _ECAN_Transmit
   _I2CSetup
   _InitDevice
   _checkCAN
     _ECAN_Receive

 _ISR (ROOT)
   _checkI2C

 Address spaces:
Name               Size   Autos  Total    Cost      Usage
BIGRAM             E40      0       0      35        0.0%
EEDATA             400      0       0       0        0.0%
BITBANK13          100      0       0      31        0.0%
BANK13             100      0       0      32        0.0%
BITBANK12          100      0       0      29        0.0%
BANK12             100      0       0      30        0.0%
BITBANK11          100      0       0      27        0.0%
BANK11             100      0       0      28        0.0%
BITBANK10          100      0       0      25        0.0%
BANK10             100      0       0      26        0.0%
BITBANK9           100      0       0      23        0.0%
BANK9              100      0       0      24        0.0%
BITBANK8           100      0       0      21        0.0%
BANK8              100      0       0      22        0.0%
BITBANK7           100      0       0      19        0.0%
BANK7              100      0       0      20        0.0%
BITBANK6           100      0       0      17        0.0%
BANK6              100      0       0      18        0.0%
BITBANK5           100      0       0      15        0.0%
BANK5              100      0       0      16        0.0%
BITBANK4           100      0       0      13        0.0%
BANK4              100      0       0      14        0.0%
BITBANK3           100      0       0      11        0.0%
BANK3              100      0       0      12        0.0%
BITBANK2           100      0       0       9        0.0%
BANK2              100      0       0      10        0.0%
BITBANK1           100      0       0       7        0.0%
BANK1              100      0       0       8        0.0%
BITBANK0            A0      0       0       4        0.0%
BANK0               A0      0       0       5        0.0%
BITCOMRAM           5E      0       0       0        0.0%
COMRAM              5E     1A      42       1       70.2%
BITBANK14           41      0       0      33        0.0%
BANK14              41      0       0      34        0.0%
BITSFR_2             0      0       0      40        0.0%
SFR_2                0      0       0      40        0.0%
BITSFR_1             0      0       0      40        0.0%
SFR_1                0      0       0      40        0.0%
BITSFR               0      0       0      40        0.0%
SFR                  0      0       0      40        0.0%
STACK                0      0       0       2        0.0%
NULL                 0      0       0       0        0.0%
ABS                  0      0      42       6        0.0%
DATA                 0      0      42       3        0.0%
CODE                 0      0       0       0        0.0%


Microchip Technology PIC18 Macro Assembler V1.35 build -356382666 
Symbol Table                                                                                   Mon Nov 30 16:41:41 2015

             _SSPSTATbits 000FC7                        l48 0320               __CFG_BORV$3 000000  
            __CFG_CP0$OFF 000000              __CFG_CP1$OFF 000000              __CFG_CP2$OFF 000000  
            __CFG_CP3$OFF 000000                       l327 01F0                       l329 0230  
            __CFG_CPB$OFF 000000                       u185 03DA                       u186 03DC  
            __CFG_CPD$OFF 000000                       _ISR 0008                       prod 000FF3  
                     wreg 000FE8                      ?_ISR 0026                      _B0D0 000E86  
                    _B0D1 000E87                      _B0D2 000E88                      _B0D3 000E89  
                    _B0D4 000E8A                      _B0D5 000E8B                      _B0D6 000E8C  
                    _B0D7 000E8D                      l1130 008A                      l1052 026E  
                    l1054 0272                      l1170 0198                      l1162 0178  
                    l1066 0282                      l1172 01A4                      l1164 0186  
                    l1166 018A                      l1158 016A                      l1262 045C  
                    _main 0312                      fsr0h 000FEA                      fsr1h 000FE2  
                    fsr0l 000FE9                      fsr2h 000FDA                      fsr1l 000FE1  
                    indf2 000FDF                      fsr2l 000FD9                      btemp 0043  
          checkI2C@sspBuf 0026          __end_of_I2CSetup 045C                      pclat 000FFA  
                    prodh 000FF4                      prodl 000FF3                      start 0082  
           __CFG_IESO$OFF 000000          __end_of_CANSetup 01B0             __CFG_MCLRE$ON 000000  
            ___param_bank 000010                     ??_ISR 0027                     _B0DLC 000E85  
                   ?_main 0026                     _BSEL0 000E7D                     _MSEL0 000E79  
                   _MSEL1 000E7A                     _MSEL2 000E7B                     _MSEL3 000E7C  
                   _TRISA 000F92                     _TRISB 000F93                     _TRISC 000F94  
          _i2c_byte_count 0017                     _Delay 045C             __CFG_WRT0$OFF 000000  
           __CFG_WRT1$OFF 000000             __CFG_WRT2$OFF 000000             __CFG_WRT3$OFF 000000  
          __CFG_EBTR0$OFF 000000            __CFG_FCMEN$OFF 000000            __CFG_EBTR1$OFF 000000  
          __CFG_EBTR2$OFF 000000            __CFG_EBTR3$OFF 000000             __CFG_WRTB$OFF 000000  
           __CFG_WRTC$OFF 000000             __CFG_WRTD$OFF 000000            __CFG_EBTRB$OFF 000000  
                   _count 0042                     tablat 000FF5                     status 000FD8  
              _InitDevice 03DE     __size_of_ECAN_Receive 00D6           __initialization 0414  
            __end_of_main 0368                    ??_main 0040             __activetblptr 000000  
          __CFG_RETEN$OFF 000000                    ?_Delay 0035                    _B0EIDH 000E83  
                  _B0EIDL 000E84          ECAN_Transmit@DLC 0036                    _B0SIDH 000E81  
                  _B0SIDL 000E82                    _CANCON 000F6F                    _ANCON0 000F5D  
                  _ANCON1 000F5C              _ECAN_Receive 01B0                    i2l1100 02DE  
                  i2l1110 0308                    i2l1104 02EA           __CFG_BBSIZ$BB2K 000000  
                  i2l1086 02B6                    _OSCCON 000FD3                    _RXB0D0 000F66  
                  _RXB0D1 000F67                    _RXB0D2 000F68                    _RXB0D3 000F69  
                  _RXB0D4 000F6A                    _RXB1D0 000F36                    _RXB0D5 000F6B  
                  _RXB1D1 000F37                    _RXB0D6 000F6C                    _RXB1D2 000F38  
                  _RXB0D7 000F6D                    _RXB1D3 000F39                    _RXB1D4 000F3A  
                  _RXB1D5 000F3B                    _RXB1D6 000F3C                    _RXB1D7 000F3D  
                  _TXB0D0 000F26          __end_of_checkI2C 0312                    _TXB0D1 000F27  
                  _TXB0D2 000F28                    _TXB0D3 000F29                    _TXB0D4 000F2A  
                  _TXB0D5 000F2B                    _TXB0D6 000F2C                    _TXB0D7 000F2D  
        __end_of_checkCAN 03DE                    _SSPADD 000FC8                    _SSPBUF 000FC9  
          __CFG_XINST$OFF 000000            __CFG_STVREN$ON 000000                    clear_0 041A  
            __pdataCOMRAM 0040                 ?_I2CSetup 0026                    tblptrh 000FF7  
                  tblptrl 000FF6                    tblptru 000FF8                 ?_CANSetup 0026  
              __accesstop 0060   __end_of__initialization 0438  ECAN_Transmit@TRANSMIT_ID 0037  
           ___rparam_used 000001               ?_InitDevice 0026               _i2c_reg_map 0001  
           __end_of_Delay 046E            __pcstackCOMRAM 0026    __size_of_ECAN_Transmit 0040  
              ??_I2CSetup 0035                   ??_Delay 0037                ??_CANSetup 0035  
         __CFG_PLLCFG$OFF 000000                __pnvCOMRAM 0042         ECAN_Transmit@SIDH 003F  
       ECAN_Transmit@SIDL 0035                 _B0CONbits 000E80                   _ECANCON 000F72  
                 _BRGCON1 000E43                   _BRGCON2 000E44                   _BRGCON3 000E45  
               ?_checkI2C 0026                 ?_checkCAN 0026          __CFG_CANMX$PORTB 000000  
     __size_of_InitDevice 0036          _BATTERISTATUS_ID 0040                   _RXB0DLC 000F65  
                 _RXB1DLC 000F35                   _RXB0CON 000F60                   _RXB1CON 000F30  
                 _TXB0DLC 000F25                   _RXFCON0 000E46                   _RXFCON1 000E47  
                 _SSPCON1 000FC6                   _SSPCON2 000FC5                   _SSPSTAT 000FC7  
           _ECAN_Transmit 0368           __CFG_PWRTEN$OFF 000000                   __Hparam 0000  
                 __Lparam 0000                   __pcinit 0414                   __ramtop 0F00  
                 __ptext0 0312                   __ptext1 03A8                   __ptext2 01B0  
                 __ptext3 03DE                   __ptext4 0442                   __ptext5 0368  
                 __ptext6 045C                   __ptext7 0086                   __ptext9 0286  
            __size_of_ISR 007A                ??_checkI2C 0026                ??_checkCAN 0036  
       __CFG_MSSPMSK$MSK7 000000                   _temp_D0 0019                   _temp_D1 001A  
                 _temp_D2 001B                   _temp_D3 001C                   _temp_D4 001D  
                 _temp_D5 001E                   _temp_D6 001F                   _temp_D7 0020  
          ?_ECAN_Transmit 0035      end_of_initialization 0438          _buttonWasPressed 0016  
                 postinc0 000FEE          __CFG_FOSC$INTIO2 000000         __size_of_I2CSetup 001A  
       __CFG_SOSCSEL$HIGH 000000         __size_of_CANSetup 012A              ??_InitDevice 0035  
            _i2c_reg_addr 0018             __pidataCOMRAM 046E       start_initialization 0414  
         ??_ECAN_Transmit 003F               __end_of_ISR 0082        __end_of_InitDevice 0414  
             _CANSTATbits 000F6E               __pbssCOMRAM 0001         __size_of_checkI2C 008C  
       __size_of_checkCAN 0036        ECAN_Transmit@DATA1 0038        ECAN_Transmit@DATA2 0039  
      ECAN_Transmit@DATA3 003A        ECAN_Transmit@DATA4 003B        ECAN_Transmit@DATA5 003C  
      ECAN_Transmit@DATA6 003D        ECAN_Transmit@DATA7 003E                 __pintcode 0008  
          _heartbeatCount 0013                  _I2C_FLAG 0011                  _I2CSetup 0442  
          __size_of_Delay 0012                  _CANSetup 0086             ?_ECAN_Receive 0026  
                _LATAbits 000F89                  _LATCbits 000F8B                  _PIE1bits 000F9D  
               _temp_EIDH 0022                 _temp_EIDL 0023                 _temp_SIDH 0024  
               _temp_SIDL 0025                  _PIR1bits 000F9E                  _PIR5bits 000F77  
                _RXB0EIDH 000F63                  _RXB0EIDL 000F64                  _RXB1EIDH 000F33  
                _RXB1EIDL 000F34                  _MOTOR_ID 0041                  _RXB0SIDH 000F61  
                _RXB0SIDL 000F62                  _RXB1SIDH 000F31                  _RXF0EIDH 000EE2  
                _RXB1SIDL 000F32                  _RXF0EIDL 000EE3                  _RXF1EIDH 000EE6  
                _RXF1EIDL 000EE7                  _RXF2EIDH 000EEA                  _RXF2EIDL 000EEB  
                _RXF0SIDH 000EE0                  _RXF0SIDL 000EE1                  _TXB0EIDH 000F23  
                _RXF1SIDH 000EE4                  _TXB0EIDL 000F24                  _RXF1SIDL 000EE5  
                _RXF2SIDH 000EE8                  _RXF2SIDL 000EE9                  _RXM0EIDH 000EFA  
                _RXM0EIDL 000EFB                  _TXB0SIDH 000F21                  _RXM1EIDH 000EFE  
                _TXB0SIDL 000F22                  _RXM1EIDL 000EFF                  _RXFBCON0 000E71  
                _RXFBCON1 000E72                  _RXFBCON2 000E73                  _RXFBCON3 000E74  
                _RXFBCON4 000E75                  _RXFBCON5 000E76                  _RXFBCON6 000E77  
                _RXFBCON7 000E78                  _RXM0SIDH 000EF8                  _RXM0SIDL 000EF9  
                _RXM1SIDH 000EFC                  _RXM1SIDL 000EFD     ECAN_Receive@RXMsgFlag 0035  
          ??_ECAN_Receive 0035                  __Hrparam 0000                  __Lrparam 0000  
      __CFG_BOREN$SBORDIS 000000                  _checkI2C 0286                  _checkCAN 03A8  
           __size_of_main 0056                  _temp_DLC 0021                  int$flags 0043  
     __CFG_INTOSCSEL$HIGH 000000                Delay@count 0035               _RXB0CONbits 000F60  
              _RECEIVE_ID 0015               _RXB1CONbits 000F30        __CFG_WDTEN$SWDTDIS 000000  
             _OSCTUNEbits 000F9B                _INTCONbits 000FF2     __end_of_ECAN_Transmit 03A8  
                intlevel2 0000               _TXB0CONbits 000F20                _OSCCONbits 000FD3  
      __CFG_WDTPS$1048576 000000      __end_of_ECAN_Receive 0286               _SSPCON1bits 000FC6  
     __CFG_BORPWR$ZPBORMV 000000  
